
input_nax_86.elf:     file format elf64-littleriscv


Disassembly of section .text.init:

0000000080000000 <_start>:
    80000000:	00010f97          	auipc	t6,0x10
    80000004:	000f8f93          	mv	t6,t6
    80000008:	000fb083          	ld	ra,0(t6) # 80010000 <_random_data0>
    8000000c:	008fb103          	ld	sp,8(t6)
    80000010:	010fb183          	ld	gp,16(t6)
    80000014:	018fb203          	ld	tp,24(t6)
    80000018:	020fb283          	ld	t0,32(t6)
    8000001c:	028fb303          	ld	t1,40(t6)
    80000020:	030fb383          	ld	t2,48(t6)
    80000024:	038fb403          	ld	s0,56(t6)
    80000028:	040fb483          	ld	s1,64(t6)
    8000002c:	048fb503          	ld	a0,72(t6)
    80000030:	050fb583          	ld	a1,80(t6)
    80000034:	058fb603          	ld	a2,88(t6)
    80000038:	060fb683          	ld	a3,96(t6)
    8000003c:	068fb703          	ld	a4,104(t6)
    80000040:	070fb783          	ld	a5,112(t6)
    80000044:	078fb803          	ld	a6,120(t6)
    80000048:	080fb883          	ld	a7,128(t6)
    8000004c:	088fb903          	ld	s2,136(t6)
    80000050:	090fb983          	ld	s3,144(t6)
    80000054:	098fba03          	ld	s4,152(t6)
    80000058:	0a0fba83          	ld	s5,160(t6)
    8000005c:	0a8fbb03          	ld	s6,168(t6)
    80000060:	0b0fbb83          	ld	s7,176(t6)
    80000064:	0b8fbc03          	ld	s8,184(t6)
    80000068:	0c0fbc83          	ld	s9,192(t6)
    8000006c:	0c8fbd03          	ld	s10,200(t6)
    80000070:	0d0fbd83          	ld	s11,208(t6)
    80000074:	0d8fbe03          	ld	t3,216(t6)
    80000078:	0e0fbe83          	ld	t4,224(t6)
    8000007c:	0e8fbf03          	ld	t5,232(t6)
    80000080:	0f0fbf83          	ld	t6,240(t6)
    80000084:	21d0006f          	j	80000aa0 <reset_vector>

0000000080000088 <init_freg>:
    80000088:	00020f97          	auipc	t6,0x20
    8000008c:	f78f8f93          	add	t6,t6,-136 # 80020000 <_random_data1>
    80000090:	000fa007          	flw	ft0,0(t6)
    80000094:	008fa087          	flw	ft1,8(t6)
    80000098:	010fa107          	flw	ft2,16(t6)
    8000009c:	018fb187          	fld	ft3,24(t6)
    800000a0:	020fb207          	fld	ft4,32(t6)
    800000a4:	028fb287          	fld	ft5,40(t6)
    800000a8:	030fb307          	fld	ft6,48(t6)
    800000ac:	038fa387          	flw	ft7,56(t6)
    800000b0:	040fb407          	fld	fs0,64(t6)
    800000b4:	048fb487          	fld	fs1,72(t6)
    800000b8:	050fa507          	flw	fa0,80(t6)
    800000bc:	058fb587          	fld	fa1,88(t6)
    800000c0:	060fb607          	fld	fa2,96(t6)
    800000c4:	068fb687          	fld	fa3,104(t6)
    800000c8:	070fa707          	flw	fa4,112(t6)
    800000cc:	078fb787          	fld	fa5,120(t6)
    800000d0:	080fb807          	fld	fa6,128(t6)
    800000d4:	088fa887          	flw	fa7,136(t6)
    800000d8:	090fa907          	flw	fs2,144(t6)
    800000dc:	098fa987          	flw	fs3,152(t6)
    800000e0:	0a0fba07          	fld	fs4,160(t6)
    800000e4:	0a8faa87          	flw	fs5,168(t6)
    800000e8:	0b0fbb07          	fld	fs6,176(t6)
    800000ec:	0b8fbb87          	fld	fs7,184(t6)
    800000f0:	0c0fbc07          	fld	fs8,192(t6)
    800000f4:	0c8fbc87          	fld	fs9,200(t6)
    800000f8:	0d0fbd07          	fld	fs10,208(t6)
    800000fc:	0d8fbd87          	fld	fs11,216(t6)
    80000100:	0e0fbe07          	fld	ft8,224(t6)
    80000104:	0e8fae87          	flw	ft9,232(t6)
    80000108:	0f0faf07          	flw	ft10,240(t6)
    8000010c:	0f8faf87          	flw	ft11,248(t6)
    80000110:	8082                	ret
    80000112:	0001                	nop
    80000114:	00000013          	nop
    80000118:	00000013          	nop
    8000011c:	00000013          	nop

0000000080000120 <_end_suffix>:
    80000120:	00000073          	ecall
    80000124:	00000013          	nop
    80000128:	00000013          	nop
    8000012c:	00000013          	nop

0000000080000130 <csr_dump>:
    80000130:	00002097          	auipc	ra,0x2
    80000134:	0d008093          	add	ra,ra,208 # 80002200 <csr_output_data>
    80000138:	10002173          	csrr	sp,sstatus
    8000013c:	0420bc23          	sd	sp,88(ra)
    80000140:	10402173          	csrr	sp,sie
    80000144:	0620b823          	sd	sp,112(ra)
    80000148:	10502173          	csrr	sp,stvec
    8000014c:	0620bc23          	sd	sp,120(ra)
    80000150:	10602173          	csrr	sp,scounteren
    80000154:	0820b023          	sd	sp,128(ra)
    80000158:	14002173          	csrr	sp,sscratch
    8000015c:	0820b423          	sd	sp,136(ra)
    80000160:	14102173          	csrr	sp,sepc
    80000164:	0820b823          	sd	sp,144(ra)
    80000168:	14202173          	csrr	sp,scause
    8000016c:	0820bc23          	sd	sp,152(ra)
    80000170:	14302173          	csrr	sp,stval
    80000174:	0a20b023          	sd	sp,160(ra)
    80000178:	14402173          	csrr	sp,sip
    8000017c:	f7f17113          	and	sp,sp,-129
    80000180:	0a20b423          	sd	sp,168(ra)
    80000184:	18002173          	csrr	sp,satp
    80000188:	0a20b823          	sd	sp,176(ra)
    8000018c:	f1402173          	csrr	sp,mhartid
    80000190:	0a20bc23          	sd	sp,184(ra)
    80000194:	30002173          	csrr	sp,mstatus
    80000198:	0c20b023          	sd	sp,192(ra)
    8000019c:	30202173          	csrr	sp,medeleg
    800001a0:	0c20b423          	sd	sp,200(ra)
    800001a4:	30302173          	csrr	sp,mideleg
    800001a8:	0c20b823          	sd	sp,208(ra)
    800001ac:	30402173          	csrr	sp,mie
    800001b0:	0c20bc23          	sd	sp,216(ra)
    800001b4:	30502173          	csrr	sp,mtvec
    800001b8:	0e20b023          	sd	sp,224(ra)
    800001bc:	30602173          	csrr	sp,mcounteren
    800001c0:	0e20b423          	sd	sp,232(ra)
    800001c4:	34002173          	csrr	sp,mscratch
    800001c8:	0e20b823          	sd	sp,240(ra)
    800001cc:	34102173          	csrr	sp,mepc
    800001d0:	0e20bc23          	sd	sp,248(ra)
    800001d4:	34202173          	csrr	sp,mcause
    800001d8:	1020b023          	sd	sp,256(ra)
    800001dc:	34302173          	csrr	sp,mtval
    800001e0:	1020b423          	sd	sp,264(ra)
    800001e4:	34402173          	csrr	sp,mip
    800001e8:	f7f17113          	and	sp,sp,-129
    800001ec:	1020b823          	sd	sp,272(ra)
    800001f0:	6519                	lui	a0,0x6
    800001f2:	30052073          	csrs	mstatus,a0

00000000800001f6 <fcsrs_dump>:
    800001f6:	00102173          	frflags	sp
    800001fa:	0420b023          	sd	sp,64(ra)
    800001fe:	00202173          	frrm	sp
    80000202:	0420b423          	sd	sp,72(ra)
    80000206:	00302173          	frcsr	sp
    8000020a:	0420b823          	sd	sp,80(ra)

000000008000020e <reg_dump>:
    8000020e:	00002097          	auipc	ra,0x2
    80000212:	df208093          	add	ra,ra,-526 # 80002000 <begin_signature>
    80000216:	0000b023          	sd	zero,0(ra)
    8000021a:	0020b823          	sd	sp,16(ra)
    8000021e:	0030bc23          	sd	gp,24(ra)
    80000222:	0240b023          	sd	tp,32(ra)
    80000226:	0250b423          	sd	t0,40(ra)
    8000022a:	0260b823          	sd	t1,48(ra)
    8000022e:	0270bc23          	sd	t2,56(ra)
    80000232:	0480b023          	sd	s0,64(ra)
    80000236:	0490b423          	sd	s1,72(ra)
    8000023a:	04a0b823          	sd	a0,80(ra)
    8000023e:	04b0bc23          	sd	a1,88(ra)
    80000242:	06c0b023          	sd	a2,96(ra)
    80000246:	06d0b423          	sd	a3,104(ra)
    8000024a:	06e0b823          	sd	a4,112(ra)
    8000024e:	06f0bc23          	sd	a5,120(ra)
    80000252:	0900b023          	sd	a6,128(ra)
    80000256:	0910b423          	sd	a7,136(ra)
    8000025a:	0920b823          	sd	s2,144(ra)
    8000025e:	0930bc23          	sd	s3,152(ra)
    80000262:	0b40b023          	sd	s4,160(ra)
    80000266:	0b50b423          	sd	s5,168(ra)
    8000026a:	0b60b823          	sd	s6,176(ra)
    8000026e:	0b70bc23          	sd	s7,184(ra)
    80000272:	0d80b023          	sd	s8,192(ra)
    80000276:	0d90b423          	sd	s9,200(ra)
    8000027a:	0db0bc23          	sd	s11,216(ra)
    8000027e:	0fc0b023          	sd	t3,224(ra)
    80000282:	0fd0b423          	sd	t4,232(ra)
    80000286:	0fe0b823          	sd	t5,240(ra)

000000008000028a <freg_dump>:
    8000028a:	00002097          	auipc	ra,0x2
    8000028e:	e7608093          	add	ra,ra,-394 # 80002100 <freg_output_data>
    80000292:	0010a427          	fsw	ft1,8(ra)
    80000296:	0020a827          	fsw	ft2,16(ra)
    8000029a:	0270ac27          	fsw	ft7,56(ra)
    8000029e:	0490a427          	fsw	fs1,72(ra)
    800002a2:	04a0a827          	fsw	fa0,80(ra)
    800002a6:	06c0a027          	fsw	fa2,96(ra)
    800002aa:	06d0a427          	fsw	fa3,104(ra)
    800002ae:	0b50a427          	fsw	fs5,168(ra)
    800002b2:	0b60a827          	fsw	fs6,176(ra)
    800002b6:	0d90a427          	fsw	fs9,200(ra)
    800002ba:	0da0a827          	fsw	fs10,208(ra)
    800002be:	0fc0a027          	fsw	ft8,224(ra)
    800002c2:	0fd0a427          	fsw	ft9,232(ra)
    800002c6:	0fe0a827          	fsw	ft10,240(ra)
    800002ca:	0ff0ac27          	fsw	ft11,248(ra)
    800002ce:	00002097          	auipc	ra,0x2
    800002d2:	e3208093          	add	ra,ra,-462 # 80002100 <freg_output_data>
    800002d6:	0000b027          	fsd	ft0,0(ra)
    800002da:	0030bc27          	fsd	ft3,24(ra)
    800002de:	0240b027          	fsd	ft4,32(ra)
    800002e2:	0250b427          	fsd	ft5,40(ra)
    800002e6:	0260b827          	fsd	ft6,48(ra)
    800002ea:	0480b027          	fsd	fs0,64(ra)
    800002ee:	04b0bc27          	fsd	fa1,88(ra)
    800002f2:	06e0b827          	fsd	fa4,112(ra)
    800002f6:	06f0bc27          	fsd	fa5,120(ra)
    800002fa:	0900b027          	fsd	fa6,128(ra)
    800002fe:	0910b427          	fsd	fa7,136(ra)
    80000302:	0920b827          	fsd	fs2,144(ra)
    80000306:	0930bc27          	fsd	fs3,152(ra)
    8000030a:	0b40b027          	fsd	fs4,160(ra)
    8000030e:	0b70bc27          	fsd	fs7,184(ra)
    80000312:	0d80b027          	fsd	fs8,192(ra)
    80000316:	0db0bc27          	fsd	fs11,216(ra)
    8000031a:	00002097          	auipc	ra,0x2
    8000031e:	ee608093          	add	ra,ra,-282 # 80002200 <csr_output_data>
    80000322:	00002117          	auipc	sp,0x2
    80000326:	cde10113          	add	sp,sp,-802 # 80002000 <begin_signature>
    8000032a:	00002197          	auipc	gp,0x2
    8000032e:	dd618193          	add	gp,gp,-554 # 80002100 <freg_output_data>
    80000332:	00010217          	auipc	tp,0x10
    80000336:	cce20213          	add	tp,tp,-818 # 80010000 <_random_data0>
    8000033a:	00020297          	auipc	t0,0x20
    8000033e:	cc628293          	add	t0,t0,-826 # 80020000 <_random_data1>
    80000342:	00030317          	auipc	t1,0x30
    80000346:	cbe30313          	add	t1,t1,-834 # 80030000 <_random_data2>
    8000034a:	00040397          	auipc	t2,0x40
    8000034e:	cb638393          	add	t2,t2,-842 # 80040000 <_random_data3>
    80000352:	00050417          	auipc	s0,0x50
    80000356:	cae40413          	add	s0,s0,-850 # 80050000 <_random_data4>
    8000035a:	00060497          	auipc	s1,0x60
    8000035e:	ca648493          	add	s1,s1,-858 # 80060000 <_random_data5>

0000000080000362 <load_xreg_nax>:
    80000362:	6502                	ld	a0,0(sp)
    80000364:	6522                	ld	a0,8(sp)
    80000366:	6542                	ld	a0,16(sp)
    80000368:	6562                	ld	a0,24(sp)
    8000036a:	7502                	ld	a0,32(sp)
    8000036c:	7522                	ld	a0,40(sp)
    8000036e:	7542                	ld	a0,48(sp)
    80000370:	7562                	ld	a0,56(sp)
    80000372:	6506                	ld	a0,64(sp)
    80000374:	6526                	ld	a0,72(sp)
    80000376:	6546                	ld	a0,80(sp)
    80000378:	6566                	ld	a0,88(sp)
    8000037a:	7506                	ld	a0,96(sp)
    8000037c:	7526                	ld	a0,104(sp)
    8000037e:	7546                	ld	a0,112(sp)
    80000380:	7566                	ld	a0,120(sp)
    80000382:	650a                	ld	a0,128(sp)
    80000384:	652a                	ld	a0,136(sp)
    80000386:	654a                	ld	a0,144(sp)
    80000388:	656a                	ld	a0,152(sp)
    8000038a:	750a                	ld	a0,160(sp)
    8000038c:	752a                	ld	a0,168(sp)
    8000038e:	754a                	ld	a0,176(sp)
    80000390:	756a                	ld	a0,184(sp)
    80000392:	650e                	ld	a0,192(sp)
    80000394:	652e                	ld	a0,200(sp)
    80000396:	654e                	ld	a0,208(sp)
    80000398:	656e                	ld	a0,216(sp)
    8000039a:	750e                	ld	a0,224(sp)
    8000039c:	752e                	ld	a0,232(sp)
    8000039e:	754e                	ld	a0,240(sp)
    800003a0:	756e                	ld	a0,248(sp)

00000000800003a2 <load_freg_nax>:
    800003a2:	0001b507          	fld	fa0,0(gp)
    800003a6:	0081b507          	fld	fa0,8(gp)
    800003aa:	0101b507          	fld	fa0,16(gp)
    800003ae:	0181b507          	fld	fa0,24(gp)
    800003b2:	0201b507          	fld	fa0,32(gp)
    800003b6:	0281b507          	fld	fa0,40(gp)
    800003ba:	0301b507          	fld	fa0,48(gp)
    800003be:	0381b507          	fld	fa0,56(gp)
    800003c2:	0401b507          	fld	fa0,64(gp)
    800003c6:	0481b507          	fld	fa0,72(gp)
    800003ca:	0501b507          	fld	fa0,80(gp)
    800003ce:	0581b507          	fld	fa0,88(gp)
    800003d2:	0601b507          	fld	fa0,96(gp)
    800003d6:	0681b507          	fld	fa0,104(gp)
    800003da:	0701b507          	fld	fa0,112(gp)
    800003de:	0781b507          	fld	fa0,120(gp)
    800003e2:	0801b507          	fld	fa0,128(gp)
    800003e6:	0881b507          	fld	fa0,136(gp)
    800003ea:	0901b507          	fld	fa0,144(gp)
    800003ee:	0981b507          	fld	fa0,152(gp)
    800003f2:	0a01b507          	fld	fa0,160(gp)
    800003f6:	0a81b507          	fld	fa0,168(gp)
    800003fa:	0b01b507          	fld	fa0,176(gp)
    800003fe:	0b81b507          	fld	fa0,184(gp)
    80000402:	0c01b507          	fld	fa0,192(gp)
    80000406:	0c81b507          	fld	fa0,200(gp)
    8000040a:	0d01b507          	fld	fa0,208(gp)
    8000040e:	0d81b507          	fld	fa0,216(gp)
    80000412:	0e01b507          	fld	fa0,224(gp)
    80000416:	0e81b507          	fld	fa0,232(gp)
    8000041a:	0f01b507          	fld	fa0,240(gp)
    8000041e:	0f81b507          	fld	fa0,248(gp)

0000000080000422 <load_csr_nax>:
    80000422:	0000b503          	ld	a0,0(ra)
    80000426:	0080b503          	ld	a0,8(ra)
    8000042a:	0100b503          	ld	a0,16(ra)
    8000042e:	0180b503          	ld	a0,24(ra)
    80000432:	0200b503          	ld	a0,32(ra)
    80000436:	0280b503          	ld	a0,40(ra)
    8000043a:	0300b503          	ld	a0,48(ra)
    8000043e:	0380b503          	ld	a0,56(ra)
    80000442:	0400b503          	ld	a0,64(ra)
    80000446:	0480b503          	ld	a0,72(ra)
    8000044a:	0500b503          	ld	a0,80(ra)
    8000044e:	0580b503          	ld	a0,88(ra)
    80000452:	0600b503          	ld	a0,96(ra)
    80000456:	0680b503          	ld	a0,104(ra)
    8000045a:	0700b503          	ld	a0,112(ra)
    8000045e:	0780b503          	ld	a0,120(ra)
    80000462:	0800b503          	ld	a0,128(ra)
    80000466:	0880b503          	ld	a0,136(ra)
    8000046a:	0900b503          	ld	a0,144(ra)
    8000046e:	0980b503          	ld	a0,152(ra)
    80000472:	0a00b503          	ld	a0,160(ra)
    80000476:	0a80b503          	ld	a0,168(ra)
    8000047a:	0b00b503          	ld	a0,176(ra)
    8000047e:	0b80b503          	ld	a0,184(ra)
    80000482:	0c00b503          	ld	a0,192(ra)
    80000486:	0c80b503          	ld	a0,200(ra)
    8000048a:	0d00b503          	ld	a0,208(ra)
    8000048e:	0d80b503          	ld	a0,216(ra)
    80000492:	0e00b503          	ld	a0,224(ra)
    80000496:	0e80b503          	ld	a0,232(ra)
    8000049a:	0f00b503          	ld	a0,240(ra)
    8000049e:	0f80b503          	ld	a0,248(ra)
    800004a2:	1000b503          	ld	a0,256(ra)
    800004a6:	1080b503          	ld	a0,264(ra)
    800004aa:	1100b503          	ld	a0,272(ra)
    800004ae:	1180b503          	ld	a0,280(ra)
    800004b2:	1200b503          	ld	a0,288(ra)
    800004b6:	1280b503          	ld	a0,296(ra)
    800004ba:	1300b503          	ld	a0,304(ra)
    800004be:	1380b503          	ld	a0,312(ra)
    800004c2:	1400b503          	ld	a0,320(ra)
    800004c6:	1480b503          	ld	a0,328(ra)
    800004ca:	1500b503          	ld	a0,336(ra)
    800004ce:	1580b503          	ld	a0,344(ra)
    800004d2:	1600b503          	ld	a0,352(ra)
    800004d6:	1680b503          	ld	a0,360(ra)
    800004da:	1700b503          	ld	a0,368(ra)
    800004de:	1780b503          	ld	a0,376(ra)
    800004e2:	1800b503          	ld	a0,384(ra)
    800004e6:	1880b503          	ld	a0,392(ra)
    800004ea:	1900b503          	ld	a0,400(ra)
    800004ee:	1980b503          	ld	a0,408(ra)
    800004f2:	1a00b503          	ld	a0,416(ra)
    800004f6:	1a80b503          	ld	a0,424(ra)
    800004fa:	1b00b503          	ld	a0,432(ra)
    800004fe:	1b80b503          	ld	a0,440(ra)
    80000502:	1c00b503          	ld	a0,448(ra)
    80000506:	1c80b503          	ld	a0,456(ra)
    8000050a:	1d00b503          	ld	a0,464(ra)
    8000050e:	1d80b503          	ld	a0,472(ra)

0000000080000512 <load_raddom_data0_nax>:
    80000512:	00023503          	ld	a0,0(tp) # 0 <_start-0x80000000>
    80000516:	00823503          	ld	a0,8(tp) # 8 <_start-0x7ffffff8>
    8000051a:	01023503          	ld	a0,16(tp) # 10 <_start-0x7ffffff0>
    8000051e:	01823503          	ld	a0,24(tp) # 18 <_start-0x7fffffe8>
    80000522:	02023503          	ld	a0,32(tp) # 20 <_start-0x7fffffe0>
    80000526:	02823503          	ld	a0,40(tp) # 28 <_start-0x7fffffd8>
    8000052a:	03023503          	ld	a0,48(tp) # 30 <_start-0x7fffffd0>
    8000052e:	03823503          	ld	a0,56(tp) # 38 <_start-0x7fffffc8>
    80000532:	04023503          	ld	a0,64(tp) # 40 <_start-0x7fffffc0>
    80000536:	04823503          	ld	a0,72(tp) # 48 <_start-0x7fffffb8>
    8000053a:	05023503          	ld	a0,80(tp) # 50 <_start-0x7fffffb0>
    8000053e:	05823503          	ld	a0,88(tp) # 58 <_start-0x7fffffa8>
    80000542:	06023503          	ld	a0,96(tp) # 60 <_start-0x7fffffa0>
    80000546:	06823503          	ld	a0,104(tp) # 68 <_start-0x7fffff98>
    8000054a:	07023503          	ld	a0,112(tp) # 70 <_start-0x7fffff90>
    8000054e:	07823503          	ld	a0,120(tp) # 78 <_start-0x7fffff88>
    80000552:	08023503          	ld	a0,128(tp) # 80 <_start-0x7fffff80>
    80000556:	08823503          	ld	a0,136(tp) # 88 <_start-0x7fffff78>
    8000055a:	09023503          	ld	a0,144(tp) # 90 <_start-0x7fffff70>
    8000055e:	09823503          	ld	a0,152(tp) # 98 <_start-0x7fffff68>
    80000562:	0a023503          	ld	a0,160(tp) # a0 <_start-0x7fffff60>
    80000566:	0a823503          	ld	a0,168(tp) # a8 <_start-0x7fffff58>
    8000056a:	0b023503          	ld	a0,176(tp) # b0 <_start-0x7fffff50>
    8000056e:	0b823503          	ld	a0,184(tp) # b8 <_start-0x7fffff48>
    80000572:	0c023503          	ld	a0,192(tp) # c0 <_start-0x7fffff40>
    80000576:	0c823503          	ld	a0,200(tp) # c8 <_start-0x7fffff38>
    8000057a:	0d023503          	ld	a0,208(tp) # d0 <_start-0x7fffff30>
    8000057e:	0d823503          	ld	a0,216(tp) # d8 <_start-0x7fffff28>
    80000582:	0e023503          	ld	a0,224(tp) # e0 <_start-0x7fffff20>
    80000586:	0e823503          	ld	a0,232(tp) # e8 <_start-0x7fffff18>
    8000058a:	0f023503          	ld	a0,240(tp) # f0 <_start-0x7fffff10>
    8000058e:	0f823503          	ld	a0,248(tp) # f8 <_start-0x7fffff08>
    80000592:	10023503          	ld	a0,256(tp) # 100 <_start-0x7fffff00>
    80000596:	10823503          	ld	a0,264(tp) # 108 <_start-0x7ffffef8>
    8000059a:	11023503          	ld	a0,272(tp) # 110 <_start-0x7ffffef0>
    8000059e:	11823503          	ld	a0,280(tp) # 118 <_start-0x7ffffee8>
    800005a2:	12023503          	ld	a0,288(tp) # 120 <_start-0x7ffffee0>
    800005a6:	12823503          	ld	a0,296(tp) # 128 <_start-0x7ffffed8>
    800005aa:	13023503          	ld	a0,304(tp) # 130 <_start-0x7ffffed0>
    800005ae:	13823503          	ld	a0,312(tp) # 138 <_start-0x7ffffec8>
    800005b2:	14023503          	ld	a0,320(tp) # 140 <_start-0x7ffffec0>
    800005b6:	14823503          	ld	a0,328(tp) # 148 <_start-0x7ffffeb8>
    800005ba:	15023503          	ld	a0,336(tp) # 150 <_start-0x7ffffeb0>
    800005be:	15823503          	ld	a0,344(tp) # 158 <_start-0x7ffffea8>
    800005c2:	16023503          	ld	a0,352(tp) # 160 <_start-0x7ffffea0>
    800005c6:	16823503          	ld	a0,360(tp) # 168 <_start-0x7ffffe98>
    800005ca:	17023503          	ld	a0,368(tp) # 170 <_start-0x7ffffe90>
    800005ce:	17823503          	ld	a0,376(tp) # 178 <_start-0x7ffffe88>
    800005d2:	18023503          	ld	a0,384(tp) # 180 <_start-0x7ffffe80>
    800005d6:	18823503          	ld	a0,392(tp) # 188 <_start-0x7ffffe78>
    800005da:	19023503          	ld	a0,400(tp) # 190 <_start-0x7ffffe70>
    800005de:	19823503          	ld	a0,408(tp) # 198 <_start-0x7ffffe68>
    800005e2:	1a023503          	ld	a0,416(tp) # 1a0 <_start-0x7ffffe60>
    800005e6:	1a823503          	ld	a0,424(tp) # 1a8 <_start-0x7ffffe58>
    800005ea:	1b023503          	ld	a0,432(tp) # 1b0 <_start-0x7ffffe50>
    800005ee:	1b823503          	ld	a0,440(tp) # 1b8 <_start-0x7ffffe48>
    800005f2:	1c023503          	ld	a0,448(tp) # 1c0 <_start-0x7ffffe40>
    800005f6:	1c823503          	ld	a0,456(tp) # 1c8 <_start-0x7ffffe38>
    800005fa:	1d023503          	ld	a0,464(tp) # 1d0 <_start-0x7ffffe30>
    800005fe:	1d823503          	ld	a0,472(tp) # 1d8 <_start-0x7ffffe28>
    80000602:	1e023503          	ld	a0,480(tp) # 1e0 <_start-0x7ffffe20>
    80000606:	1e823503          	ld	a0,488(tp) # 1e8 <_start-0x7ffffe18>
    8000060a:	1f023503          	ld	a0,496(tp) # 1f0 <_start-0x7ffffe10>
    8000060e:	1f823503          	ld	a0,504(tp) # 1f8 <_start-0x7ffffe08>

0000000080000612 <load_raddom_data1_nax>:
    80000612:	0002b503          	ld	a0,0(t0)
    80000616:	0082b503          	ld	a0,8(t0)
    8000061a:	0102b503          	ld	a0,16(t0)
    8000061e:	0182b503          	ld	a0,24(t0)
    80000622:	0202b503          	ld	a0,32(t0)
    80000626:	0282b503          	ld	a0,40(t0)
    8000062a:	0302b503          	ld	a0,48(t0)
    8000062e:	0382b503          	ld	a0,56(t0)
    80000632:	0402b503          	ld	a0,64(t0)
    80000636:	0482b503          	ld	a0,72(t0)
    8000063a:	0502b503          	ld	a0,80(t0)
    8000063e:	0582b503          	ld	a0,88(t0)
    80000642:	0602b503          	ld	a0,96(t0)
    80000646:	0682b503          	ld	a0,104(t0)
    8000064a:	0702b503          	ld	a0,112(t0)
    8000064e:	0782b503          	ld	a0,120(t0)
    80000652:	0802b503          	ld	a0,128(t0)
    80000656:	0882b503          	ld	a0,136(t0)
    8000065a:	0902b503          	ld	a0,144(t0)
    8000065e:	0982b503          	ld	a0,152(t0)
    80000662:	0a02b503          	ld	a0,160(t0)
    80000666:	0a82b503          	ld	a0,168(t0)
    8000066a:	0b02b503          	ld	a0,176(t0)
    8000066e:	0b82b503          	ld	a0,184(t0)
    80000672:	0c02b503          	ld	a0,192(t0)
    80000676:	0c82b503          	ld	a0,200(t0)
    8000067a:	0d02b503          	ld	a0,208(t0)
    8000067e:	0d82b503          	ld	a0,216(t0)
    80000682:	0e02b503          	ld	a0,224(t0)
    80000686:	0e82b503          	ld	a0,232(t0)
    8000068a:	0f02b503          	ld	a0,240(t0)
    8000068e:	0f82b503          	ld	a0,248(t0)
    80000692:	1002b503          	ld	a0,256(t0)
    80000696:	1082b503          	ld	a0,264(t0)
    8000069a:	1102b503          	ld	a0,272(t0)
    8000069e:	1182b503          	ld	a0,280(t0)
    800006a2:	1202b503          	ld	a0,288(t0)
    800006a6:	1282b503          	ld	a0,296(t0)
    800006aa:	1302b503          	ld	a0,304(t0)
    800006ae:	1382b503          	ld	a0,312(t0)
    800006b2:	1402b503          	ld	a0,320(t0)
    800006b6:	1482b503          	ld	a0,328(t0)
    800006ba:	1502b503          	ld	a0,336(t0)
    800006be:	1582b503          	ld	a0,344(t0)
    800006c2:	1602b503          	ld	a0,352(t0)
    800006c6:	1682b503          	ld	a0,360(t0)
    800006ca:	1702b503          	ld	a0,368(t0)
    800006ce:	1782b503          	ld	a0,376(t0)
    800006d2:	1802b503          	ld	a0,384(t0)
    800006d6:	1882b503          	ld	a0,392(t0)
    800006da:	1902b503          	ld	a0,400(t0)
    800006de:	1982b503          	ld	a0,408(t0)
    800006e2:	1a02b503          	ld	a0,416(t0)
    800006e6:	1a82b503          	ld	a0,424(t0)
    800006ea:	1b02b503          	ld	a0,432(t0)
    800006ee:	1b82b503          	ld	a0,440(t0)
    800006f2:	1c02b503          	ld	a0,448(t0)
    800006f6:	1c82b503          	ld	a0,456(t0)
    800006fa:	1d02b503          	ld	a0,464(t0)
    800006fe:	1d82b503          	ld	a0,472(t0)
    80000702:	1e02b503          	ld	a0,480(t0)
    80000706:	1e82b503          	ld	a0,488(t0)
    8000070a:	1f02b503          	ld	a0,496(t0)
    8000070e:	1f82b503          	ld	a0,504(t0)

0000000080000712 <load_raddom_data2_nax>:
    80000712:	00033503          	ld	a0,0(t1)
    80000716:	00833503          	ld	a0,8(t1)
    8000071a:	01033503          	ld	a0,16(t1)
    8000071e:	01833503          	ld	a0,24(t1)
    80000722:	02033503          	ld	a0,32(t1)
    80000726:	02833503          	ld	a0,40(t1)
    8000072a:	03033503          	ld	a0,48(t1)
    8000072e:	03833503          	ld	a0,56(t1)
    80000732:	04033503          	ld	a0,64(t1)
    80000736:	04833503          	ld	a0,72(t1)
    8000073a:	05033503          	ld	a0,80(t1)
    8000073e:	05833503          	ld	a0,88(t1)
    80000742:	06033503          	ld	a0,96(t1)
    80000746:	06833503          	ld	a0,104(t1)
    8000074a:	07033503          	ld	a0,112(t1)
    8000074e:	07833503          	ld	a0,120(t1)
    80000752:	08033503          	ld	a0,128(t1)
    80000756:	08833503          	ld	a0,136(t1)
    8000075a:	09033503          	ld	a0,144(t1)
    8000075e:	09833503          	ld	a0,152(t1)
    80000762:	0a033503          	ld	a0,160(t1)
    80000766:	0a833503          	ld	a0,168(t1)
    8000076a:	0b033503          	ld	a0,176(t1)
    8000076e:	0b833503          	ld	a0,184(t1)
    80000772:	0c033503          	ld	a0,192(t1)
    80000776:	0c833503          	ld	a0,200(t1)
    8000077a:	0d033503          	ld	a0,208(t1)
    8000077e:	0d833503          	ld	a0,216(t1)
    80000782:	0e033503          	ld	a0,224(t1)
    80000786:	0e833503          	ld	a0,232(t1)
    8000078a:	0f033503          	ld	a0,240(t1)
    8000078e:	0f833503          	ld	a0,248(t1)
    80000792:	10033503          	ld	a0,256(t1)
    80000796:	10833503          	ld	a0,264(t1)
    8000079a:	11033503          	ld	a0,272(t1)
    8000079e:	11833503          	ld	a0,280(t1)
    800007a2:	12033503          	ld	a0,288(t1)
    800007a6:	12833503          	ld	a0,296(t1)
    800007aa:	13033503          	ld	a0,304(t1)
    800007ae:	13833503          	ld	a0,312(t1)
    800007b2:	14033503          	ld	a0,320(t1)
    800007b6:	14833503          	ld	a0,328(t1)
    800007ba:	15033503          	ld	a0,336(t1)
    800007be:	15833503          	ld	a0,344(t1)
    800007c2:	16033503          	ld	a0,352(t1)
    800007c6:	16833503          	ld	a0,360(t1)
    800007ca:	17033503          	ld	a0,368(t1)
    800007ce:	17833503          	ld	a0,376(t1)
    800007d2:	18033503          	ld	a0,384(t1)
    800007d6:	18833503          	ld	a0,392(t1)
    800007da:	19033503          	ld	a0,400(t1)
    800007de:	19833503          	ld	a0,408(t1)
    800007e2:	1a033503          	ld	a0,416(t1)
    800007e6:	1a833503          	ld	a0,424(t1)
    800007ea:	1b033503          	ld	a0,432(t1)
    800007ee:	1b833503          	ld	a0,440(t1)
    800007f2:	1c033503          	ld	a0,448(t1)
    800007f6:	1c833503          	ld	a0,456(t1)
    800007fa:	1d033503          	ld	a0,464(t1)
    800007fe:	1d833503          	ld	a0,472(t1)
    80000802:	1e033503          	ld	a0,480(t1)
    80000806:	1e833503          	ld	a0,488(t1)
    8000080a:	1f033503          	ld	a0,496(t1)
    8000080e:	1f833503          	ld	a0,504(t1)

0000000080000812 <load_raddom_data3_nax>:
    80000812:	0003b503          	ld	a0,0(t2)
    80000816:	0083b503          	ld	a0,8(t2)
    8000081a:	0103b503          	ld	a0,16(t2)
    8000081e:	0183b503          	ld	a0,24(t2)
    80000822:	0203b503          	ld	a0,32(t2)
    80000826:	0283b503          	ld	a0,40(t2)
    8000082a:	0303b503          	ld	a0,48(t2)
    8000082e:	0383b503          	ld	a0,56(t2)
    80000832:	0403b503          	ld	a0,64(t2)
    80000836:	0483b503          	ld	a0,72(t2)
    8000083a:	0503b503          	ld	a0,80(t2)
    8000083e:	0583b503          	ld	a0,88(t2)
    80000842:	0603b503          	ld	a0,96(t2)
    80000846:	0683b503          	ld	a0,104(t2)
    8000084a:	0703b503          	ld	a0,112(t2)
    8000084e:	0783b503          	ld	a0,120(t2)
    80000852:	0803b503          	ld	a0,128(t2)
    80000856:	0883b503          	ld	a0,136(t2)
    8000085a:	0903b503          	ld	a0,144(t2)
    8000085e:	0983b503          	ld	a0,152(t2)
    80000862:	0a03b503          	ld	a0,160(t2)
    80000866:	0a83b503          	ld	a0,168(t2)
    8000086a:	0b03b503          	ld	a0,176(t2)
    8000086e:	0b83b503          	ld	a0,184(t2)
    80000872:	0c03b503          	ld	a0,192(t2)
    80000876:	0c83b503          	ld	a0,200(t2)
    8000087a:	0d03b503          	ld	a0,208(t2)
    8000087e:	0d83b503          	ld	a0,216(t2)
    80000882:	0e03b503          	ld	a0,224(t2)
    80000886:	0e83b503          	ld	a0,232(t2)
    8000088a:	0f03b503          	ld	a0,240(t2)
    8000088e:	0f83b503          	ld	a0,248(t2)
    80000892:	1003b503          	ld	a0,256(t2)
    80000896:	1083b503          	ld	a0,264(t2)
    8000089a:	1103b503          	ld	a0,272(t2)
    8000089e:	1183b503          	ld	a0,280(t2)
    800008a2:	1203b503          	ld	a0,288(t2)
    800008a6:	1283b503          	ld	a0,296(t2)
    800008aa:	1303b503          	ld	a0,304(t2)
    800008ae:	1383b503          	ld	a0,312(t2)
    800008b2:	1403b503          	ld	a0,320(t2)
    800008b6:	1483b503          	ld	a0,328(t2)
    800008ba:	1503b503          	ld	a0,336(t2)
    800008be:	1583b503          	ld	a0,344(t2)
    800008c2:	1603b503          	ld	a0,352(t2)
    800008c6:	1683b503          	ld	a0,360(t2)
    800008ca:	1703b503          	ld	a0,368(t2)
    800008ce:	1783b503          	ld	a0,376(t2)
    800008d2:	1803b503          	ld	a0,384(t2)
    800008d6:	1883b503          	ld	a0,392(t2)
    800008da:	1903b503          	ld	a0,400(t2)
    800008de:	1983b503          	ld	a0,408(t2)
    800008e2:	1a03b503          	ld	a0,416(t2)
    800008e6:	1a83b503          	ld	a0,424(t2)
    800008ea:	1b03b503          	ld	a0,432(t2)
    800008ee:	1b83b503          	ld	a0,440(t2)
    800008f2:	1c03b503          	ld	a0,448(t2)
    800008f6:	1c83b503          	ld	a0,456(t2)
    800008fa:	1d03b503          	ld	a0,464(t2)
    800008fe:	1d83b503          	ld	a0,472(t2)
    80000902:	1e03b503          	ld	a0,480(t2)
    80000906:	1e83b503          	ld	a0,488(t2)
    8000090a:	1f03b503          	ld	a0,496(t2)
    8000090e:	1f83b503          	ld	a0,504(t2)

0000000080000912 <load_raddom_data4_nax>:
    80000912:	6008                	ld	a0,0(s0)
    80000914:	6408                	ld	a0,8(s0)
    80000916:	6808                	ld	a0,16(s0)
    80000918:	6c08                	ld	a0,24(s0)
    8000091a:	7008                	ld	a0,32(s0)
    8000091c:	7408                	ld	a0,40(s0)
    8000091e:	7808                	ld	a0,48(s0)
    80000920:	7c08                	ld	a0,56(s0)
    80000922:	6028                	ld	a0,64(s0)
    80000924:	6428                	ld	a0,72(s0)
    80000926:	6828                	ld	a0,80(s0)
    80000928:	6c28                	ld	a0,88(s0)
    8000092a:	7028                	ld	a0,96(s0)
    8000092c:	7428                	ld	a0,104(s0)
    8000092e:	7828                	ld	a0,112(s0)
    80000930:	7c28                	ld	a0,120(s0)
    80000932:	6048                	ld	a0,128(s0)
    80000934:	6448                	ld	a0,136(s0)
    80000936:	6848                	ld	a0,144(s0)
    80000938:	6c48                	ld	a0,152(s0)
    8000093a:	7048                	ld	a0,160(s0)
    8000093c:	7448                	ld	a0,168(s0)
    8000093e:	7848                	ld	a0,176(s0)
    80000940:	7c48                	ld	a0,184(s0)
    80000942:	6068                	ld	a0,192(s0)
    80000944:	6468                	ld	a0,200(s0)
    80000946:	6868                	ld	a0,208(s0)
    80000948:	6c68                	ld	a0,216(s0)
    8000094a:	7068                	ld	a0,224(s0)
    8000094c:	7468                	ld	a0,232(s0)
    8000094e:	7868                	ld	a0,240(s0)
    80000950:	7c68                	ld	a0,248(s0)
    80000952:	10043503          	ld	a0,256(s0)
    80000956:	10843503          	ld	a0,264(s0)
    8000095a:	11043503          	ld	a0,272(s0)
    8000095e:	11843503          	ld	a0,280(s0)
    80000962:	12043503          	ld	a0,288(s0)
    80000966:	12843503          	ld	a0,296(s0)
    8000096a:	13043503          	ld	a0,304(s0)
    8000096e:	13843503          	ld	a0,312(s0)
    80000972:	14043503          	ld	a0,320(s0)
    80000976:	14843503          	ld	a0,328(s0)
    8000097a:	15043503          	ld	a0,336(s0)
    8000097e:	15843503          	ld	a0,344(s0)
    80000982:	16043503          	ld	a0,352(s0)
    80000986:	16843503          	ld	a0,360(s0)
    8000098a:	17043503          	ld	a0,368(s0)
    8000098e:	17843503          	ld	a0,376(s0)
    80000992:	18043503          	ld	a0,384(s0)
    80000996:	18843503          	ld	a0,392(s0)
    8000099a:	19043503          	ld	a0,400(s0)
    8000099e:	19843503          	ld	a0,408(s0)
    800009a2:	1a043503          	ld	a0,416(s0)
    800009a6:	1a843503          	ld	a0,424(s0)
    800009aa:	1b043503          	ld	a0,432(s0)
    800009ae:	1b843503          	ld	a0,440(s0)
    800009b2:	1c043503          	ld	a0,448(s0)
    800009b6:	1c843503          	ld	a0,456(s0)
    800009ba:	1d043503          	ld	a0,464(s0)
    800009be:	1d843503          	ld	a0,472(s0)
    800009c2:	1e043503          	ld	a0,480(s0)
    800009c6:	1e843503          	ld	a0,488(s0)
    800009ca:	1f043503          	ld	a0,496(s0)
    800009ce:	1f843503          	ld	a0,504(s0)

00000000800009d2 <load_raddom_data5_nax>:
    800009d2:	6088                	ld	a0,0(s1)
    800009d4:	6488                	ld	a0,8(s1)
    800009d6:	6888                	ld	a0,16(s1)
    800009d8:	6c88                	ld	a0,24(s1)
    800009da:	7088                	ld	a0,32(s1)
    800009dc:	7488                	ld	a0,40(s1)
    800009de:	7888                	ld	a0,48(s1)
    800009e0:	7c88                	ld	a0,56(s1)
    800009e2:	60a8                	ld	a0,64(s1)
    800009e4:	64a8                	ld	a0,72(s1)
    800009e6:	68a8                	ld	a0,80(s1)
    800009e8:	6ca8                	ld	a0,88(s1)
    800009ea:	70a8                	ld	a0,96(s1)
    800009ec:	74a8                	ld	a0,104(s1)
    800009ee:	78a8                	ld	a0,112(s1)
    800009f0:	7ca8                	ld	a0,120(s1)
    800009f2:	60c8                	ld	a0,128(s1)
    800009f4:	64c8                	ld	a0,136(s1)
    800009f6:	68c8                	ld	a0,144(s1)
    800009f8:	6cc8                	ld	a0,152(s1)
    800009fa:	70c8                	ld	a0,160(s1)
    800009fc:	74c8                	ld	a0,168(s1)
    800009fe:	78c8                	ld	a0,176(s1)
    80000a00:	7cc8                	ld	a0,184(s1)
    80000a02:	60e8                	ld	a0,192(s1)
    80000a04:	64e8                	ld	a0,200(s1)
    80000a06:	68e8                	ld	a0,208(s1)
    80000a08:	6ce8                	ld	a0,216(s1)
    80000a0a:	70e8                	ld	a0,224(s1)
    80000a0c:	74e8                	ld	a0,232(s1)
    80000a0e:	78e8                	ld	a0,240(s1)
    80000a10:	7ce8                	ld	a0,248(s1)
    80000a12:	1004b503          	ld	a0,256(s1)
    80000a16:	1084b503          	ld	a0,264(s1)
    80000a1a:	1104b503          	ld	a0,272(s1)
    80000a1e:	1184b503          	ld	a0,280(s1)
    80000a22:	1204b503          	ld	a0,288(s1)
    80000a26:	1284b503          	ld	a0,296(s1)
    80000a2a:	1304b503          	ld	a0,304(s1)
    80000a2e:	1384b503          	ld	a0,312(s1)
    80000a32:	1404b503          	ld	a0,320(s1)
    80000a36:	1484b503          	ld	a0,328(s1)
    80000a3a:	1504b503          	ld	a0,336(s1)
    80000a3e:	1584b503          	ld	a0,344(s1)
    80000a42:	1604b503          	ld	a0,352(s1)
    80000a46:	1684b503          	ld	a0,360(s1)
    80000a4a:	1704b503          	ld	a0,368(s1)
    80000a4e:	1784b503          	ld	a0,376(s1)
    80000a52:	1804b503          	ld	a0,384(s1)
    80000a56:	1884b503          	ld	a0,392(s1)
    80000a5a:	1904b503          	ld	a0,400(s1)
    80000a5e:	1984b503          	ld	a0,408(s1)
    80000a62:	1a04b503          	ld	a0,416(s1)
    80000a66:	1a84b503          	ld	a0,424(s1)
    80000a6a:	1b04b503          	ld	a0,432(s1)
    80000a6e:	1b84b503          	ld	a0,440(s1)
    80000a72:	1c04b503          	ld	a0,448(s1)
    80000a76:	1c84b503          	ld	a0,456(s1)
    80000a7a:	1d04b503          	ld	a0,464(s1)
    80000a7e:	1d84b503          	ld	a0,472(s1)
    80000a82:	1e04b503          	ld	a0,480(s1)
    80000a86:	1e84b503          	ld	a0,488(s1)
    80000a8a:	1f04b503          	ld	a0,496(s1)
    80000a8e:	1f84b503          	ld	a0,504(s1)

0000000080000a92 <write_tohost>:
    80000a92:	4185                	li	gp,1
    80000a94:	00000f17          	auipc	t5,0x0
    80000a98:	563f2623          	sw	gp,1388(t5) # 80001000 <tohost>

0000000080000a9c <_test_end>:
    80000a9c:	a001                	j	80000a9c <_test_end>
    80000a9e:	0001                	nop

0000000080000aa0 <reset_vector>:
    80000aa0:	30005073          	csrw	mstatus,0
    80000aa4:	f1402573          	csrr	a0,mhartid
    80000aa8:	e101                	bnez	a0,80000aa8 <reset_vector+0x8>
    80000aaa:	00000297          	auipc	t0,0x0
    80000aae:	01a28293          	add	t0,t0,26 # 80000ac4 <reset_vector+0x24>
    80000ab2:	30529073          	csrw	mtvec,t0
    80000ab6:	30205073          	csrw	medeleg,0
    80000aba:	30305073          	csrw	mideleg,0
    80000abe:	30405073          	csrw	mie,0
    80000ac2:	0001                	nop
    80000ac4:	00000297          	auipc	t0,0x0
    80000ac8:	01028293          	add	t0,t0,16 # 80000ad4 <reset_vector+0x34>
    80000acc:	30529073          	csrw	mtvec,t0
    80000ad0:	18005073          	csrw	satp,0
    80000ad4:	fffff297          	auipc	t0,0xfffff
    80000ad8:	65c28293          	add	t0,t0,1628 # 80000130 <csr_dump>
    80000adc:	30529073          	csrw	mtvec,t0
    80000ae0:	4181                	li	gp,0
    80000ae2:	4505                	li	a0,1
    80000ae4:	057e                	sll	a0,a0,0x1f
    80000ae6:	00055a63          	bgez	a0,80000afa <reset_vector+0x5a>
    80000aea:	0ff0000f          	fence
    80000aee:	4185                	li	gp,1
    80000af0:	05d00893          	li	a7,93
    80000af4:	4501                	li	a0,0
    80000af6:	00000073          	ecall
    80000afa:	fffff297          	auipc	t0,0xfffff
    80000afe:	62628293          	add	t0,t0,1574 # 80000120 <_end_suffix>
    80000b02:	10529073          	csrw	stvec,t0
    80000b06:	62ad                	lui	t0,0xb
    80000b08:	1092829b          	addw	t0,t0,265 # b109 <_start-0x7fff4ef7>
    80000b0c:	3022a073          	csrs	medeleg,t0
    80000b10:	6519                	lui	a0,0x6
    80000b12:	30052073          	csrs	mstatus,a0
    80000b16:	00305073          	csrw	fcsr,0
    80000b1a:	d6eff0ef          	jal	80000088 <init_freg>
    80000b1e:	b0201073          	csrw	minstret,zero
    80000b22:	f1402573          	csrr	a0,mhartid

0000000080000b26 <_fuzz_prefix>:
    80000b26:	3439e773          	csrrs	a4,mtval,19

0000000080000b2a <_p1>:
    80000b2a:	8d29                	xor	a0,a0,a0
    80000b2c:	4605                	li	a2,1
    80000b2e:	0672                	sll	a2,a2,0x1c
    80000b30:	9532                	add	a0,a0,a2
    80000b32:	14452573          	csrrs	a0,sip,a0

0000000080000b36 <_p2>:
    80000b36:	140855f3          	csrrw	a1,sscratch,16

0000000080000b3a <_end_prefix>:
    80000b3a:	00000297          	auipc	t0,0x0
    80000b3e:	04628293          	add	t0,t0,70 # 80000b80 <_fuzz_main>
    80000b42:	34129073          	csrw	mepc,t0
    80000b46:	4281                	li	t0,0
    80000b48:	30200073          	mret
    80000b4c:	00000013          	nop
    80000b50:	00000013          	nop
    80000b54:	00000013          	nop
    80000b58:	00000013          	nop
    80000b5c:	00000013          	nop
    80000b60:	00000013          	nop
    80000b64:	00000013          	nop
    80000b68:	00000013          	nop
    80000b6c:	00000013          	nop
    80000b70:	00000013          	nop
    80000b74:	00000013          	nop
    80000b78:	00000013          	nop
    80000b7c:	00000013          	nop

0000000080000b80 <_fuzz_main>:
    80000b80:	b1b34bcb          	fnmsub.s	fs7,ft6,fs11,fs6,rmm

0000000080000b84 <_l1>:
    80000b84:	03a6433b          	divw	t1,a2,s10

0000000080000b88 <_l2>:
    80000b88:	216307d3          	fsgnj.s	fa5,ft6,fs6

0000000080000b8c <_l3>:
    80000b8c:	0002fc17          	auipc	s8,0x2f
    80000b90:	5c4c0c13          	add	s8,s8,1476 # 80030150 <d_2_19>
    80000b94:	0c41                	add	s8,s8,16
    80000b96:	c0dc3a2f          	amominu.d	s4,a3,(s8)

0000000080000b9a <_l4>:
    80000b9a:	0002f697          	auipc	a3,0x2f
    80000b9e:	60668693          	add	a3,a3,1542 # 800301a0 <d_2_24>
    80000ba2:	1691                	add	a3,a3,-28
    80000ba4:	00c6af2f          	amoadd.w	t5,a2,(a3)

0000000080000ba8 <_l5>:
    80000ba8:	0004fc17          	auipc	s8,0x4f
    80000bac:	4b8c0c13          	add	s8,s8,1208 # 80050060 <d_4_4>
    80000bb0:	1c51                	add	s8,s8,-12
    80000bb2:	003c2a2f          	amoadd.w	s4,gp,(s8)

0000000080000bb6 <_l6>:
    80000bb6:	0002f217          	auipc	tp,0x2f
    80000bba:	4aa20213          	add	tp,tp,1194 # 80030060 <d_2_4>
    80000bbe:	0231                	add	tp,tp,12 # c <_start-0x7ffffff4>
    80000bc0:	a14226af          	amomax.w	a3,s4,(tp)

0000000080000bc4 <_l7>:
    80000bc4:	32c92acb          	fnmsub.d	fs5,fs2,fa2,ft6,rdn

0000000080000bc8 <_l8>:
    80000bc8:	0105983b          	sllw	a6,a1,a6

0000000080000bcc <_l9>:
    80000bcc:	0003f817          	auipc	a6,0x3f
    80000bd0:	53480813          	add	a6,a6,1332 # 80040100 <d_3_14>
    80000bd4:	ffe00837          	lui	a6,0xffe00
    80000bd8:	01084833          	xor	a6,a6,a6
    80000bdc:	01c81f23          	sh	t3,30(a6) # ffffffffffe0001e <_end+0xffffffff7fd9fe1e>

0000000080000be0 <_l10>:
    80000be0:	00000697          	auipc	a3,0x0
    80000be4:	13e68693          	add	a3,a3,318 # 80000d1e <_l60>
    80000be8:	34169073          	csrw	mepc,a3
    80000bec:	30200073          	mret

0000000080000bf0 <_l11>:
    80000bf0:	b9594043          	fmadd.s	ft0,fs2,fs5,fs7,rmm

0000000080000bf4 <_l12>:
    80000bf4:	21b787d3          	fsgnj.s	fa5,fa5,fs11

0000000080000bf8 <_l13>:
    80000bf8:	d23393d3          	fcvt.d.lu	ft7,t2,rtz

0000000080000bfc <_l14>:
    80000bfc:	0003fd97          	auipc	s11,0x3f
    80000c00:	454d8d93          	add	s11,s11,1108 # 80040050 <d_3_3>
    80000c04:	1dd1                	add	s11,s11,-12
    80000c06:	084da22f          	amoswap.w	tp,tp,(s11)

0000000080000c0a <_l15>:
    80000c0a:	e2071153          	fclass.d	sp,fa4

0000000080000c0e <_l16>:
    80000c0e:	7ff6841b          	addw	s0,a3,2047

0000000080000c12 <_l17>:
    80000c12:	0003fa17          	auipc	s4,0x3f
    80000c16:	4cea0a13          	add	s4,s4,1230 # 800400e0 <d_3_12>
    80000c1a:	ffba1623          	sh	s11,-20(s4)

0000000080000c1e <_l18>:
    80000c1e:	232a0953          	fsgnj.d	fs2,fs4,fs2

0000000080000c22 <_l19>:
    80000c22:	11220dd3          	fmul.s	fs11,ft4,fs2,rne

0000000080000c26 <_l20>:
    80000c26:	003b9ab3          	sll	s5,s7,gp

0000000080000c2a <_l21>:
    80000c2a:	02539633          	mulh	a2,t2,t0

0000000080000c2e <_l22>:
    80000c2e:	2a639f53          	fmax.d	ft10,ft7,ft6

0000000080000c32 <_l23>:
    80000c32:	e2009d53          	fclass.d	s10,ft1

0000000080000c36 <_l24>:
    80000c36:	e20011d3          	fclass.d	gp,ft0

0000000080000c3a <_l25>:
    80000c3a:	02e589b3          	mul	s3,a1,a4

0000000080000c3e <_l26>:
    80000c3e:	d01817d3          	fcvt.s.wu	fa5,a6,rtz

0000000080000c42 <_l27>:
    80000c42:	08c1a753          	fsub.s	fa4,ft3,fa2,rdn

0000000080000c46 <_l28>:
    80000c46:	0001f497          	auipc	s1,0x1f
    80000c4a:	4ba48493          	add	s1,s1,1210 # 80020100 <d_1_14>
    80000c4e:	14e1                	add	s1,s1,-8
    80000c50:	4124b4af          	amoor.d	s1,s2,(s1)

0000000080000c54 <_l29>:
    80000c54:	022555bb          	divuw	a1,a0,sp

0000000080000c58 <_l30>:
    80000c58:	00011a9b          	sllw	s5,sp,0x0

0000000080000c5c <_l31>:
    80000c5c:	402383bb          	subw	t2,t2,sp

0000000080000c60 <_l32>:
    80000c60:	c0058ad3          	fcvt.w.s	s5,fa1,rne

0000000080000c64 <_l33>:
    80000c64:	721f464b          	fnmsub.d	fa2,ft10,ft1,fa4,rmm

0000000080000c68 <_l34>:
    80000c68:	0005f817          	auipc	a6,0x5f
    80000c6c:	52880813          	add	a6,a6,1320 # 80060190 <d_5_23>
    80000c70:	ff083a87          	fld	fs5,-16(a6)

0000000080000c74 <_l35>:
    80000c74:	036321b3          	mulhsu	gp,t1,s6

0000000080000c78 <_l36>:
    80000c78:	0004fc97          	auipc	s9,0x4f
    80000c7c:	4e8c8c93          	add	s9,s9,1256 # 80050160 <d_4_20>
    80000c80:	0c91                	add	s9,s9,4
    80000c82:	a04caf2f          	amomax.w	t5,tp,(s9)

0000000080000c86 <_l37>:
    80000c86:	03bd26b3          	mulhsu	a3,s10,s11

0000000080000c8a <_l38>:
    80000c8a:	23a50b53          	fsgnj.d	fs6,fa0,fs10

0000000080000c8e <_l39>:
    80000c8e:	0002f117          	auipc	sp,0x2f
    80000c92:	4c210113          	add	sp,sp,1218 # 80030150 <d_2_19>
    80000c96:	61c2                	ld	gp,16(sp)

0000000080000c98 <_l40>:
    80000c98:	0257d813          	srl	a6,a5,0x25

0000000080000c9c <_l41>:
    80000c9c:	0003fe17          	auipc	t3,0x3f
    80000ca0:	394e0e13          	add	t3,t3,916 # 80040030 <d_3_1>
    80000ca4:	1e21                	add	t3,t3,-24
    80000ca6:	602e342f          	amoand.d	s0,sp,(t3)

0000000080000caa <_l42>:
    80000caa:	02985133          	divu	sp,a6,s1

0000000080000cae <_l43>:
    80000cae:	0002fc17          	auipc	s8,0x2f
    80000cb2:	492c0c13          	add	s8,s8,1170 # 80030140 <d_2_18>
    80000cb6:	0c51                	add	s8,s8,20
    80000cb8:	815c28af          	amomin.w	a7,s5,(s8)

0000000080000cbc <_l44>:
    80000cbc:	a2fd04d3          	fle.d	s1,fs10,fa5

0000000080000cc0 <_l45>:
    80000cc0:	780c0543          	fmadd.s	fa0,fs8,ft0,fa5,rne

0000000080000cc4 <_l46>:
    80000cc4:	d01f01d3          	fcvt.s.wu	ft3,t5,rne

0000000080000cc8 <_l47>:
    80000cc8:	13b0a6d3          	fmul.d	fa3,ft1,fs11,rdn

0000000080000ccc <_l48>:
    80000ccc:	a0fc1bd3          	flt.s	s7,fs8,fa5

0000000080000cd0 <_l49>:
    80000cd0:	005cc4b3          	xor	s1,s9,t0

0000000080000cd4 <_l50>:
    80000cd4:	00485e33          	srl	t3,a6,tp

0000000080000cd8 <_l51>:
    80000cd8:	10437573          	csrrc	a0,sie,6

0000000080000cdc <_l52>:
    80000cdc:	4178dc9b          	sraw	s9,a7,0x17

0000000080000ce0 <_l53>:
    80000ce0:	d03f30d3          	fcvt.s.lu	ft1,t5,rup

0000000080000ce4 <_l54>:
    80000ce4:	002cceb3          	xor	t4,s9,sp

0000000080000ce8 <_l55>:
    80000ce8:	4d81                	li	s11,0
    80000cea:	00001c17          	auipc	s8,0x1
    80000cee:	6f6c0c13          	add	s8,s8,1782 # 800023e0 <end_signature>
    80000cf2:	0c41                	add	s8,s8,16
    80000cf4:	138d8073          	sfence.vma	s11,s8

0000000080000cf8 <_l56>:
    80000cf8:	02a7f93b          	remuw	s2,a5,a0

0000000080000cfc <_l57>:
    80000cfc:	7b7a26cf          	fnmadd.d	fa3,fs4,fs7,fa5,rdn

0000000080000d00 <_l58>:
    80000d00:	4405                	li	s0,1
    80000d02:	00001497          	auipc	s1,0x1
    80000d06:	6de48493          	add	s1,s1,1758 # 800023e0 <end_signature>
    80000d0a:	04c1                	add	s1,s1,16
    80000d0c:	12940073          	sfence.vma	s0,s1

0000000080000d10 <_l59>:
    80000d10:	0004fe97          	auipc	t4,0x4f
    80000d14:	390e8e93          	add	t4,t4,912 # 800500a0 <d_4_8>
    80000d18:	1ec1                	add	t4,t4,-16
    80000d1a:	e04ea92f          	amomaxu.w	s2,tp,(t4)

0000000080000d1e <_l60>:
    80000d1e:	03532eb3          	mulhsu	t4,t1,s5

0000000080000d22 <_l61>:
    80000d22:	008aa3b3          	slt	t2,s5,s0

0000000080000d26 <_l62>:
    80000d26:	224e0453          	fsgnj.d	fs0,ft8,ft4

0000000080000d2a <_l63>:
    80000d2a:	03bade63          	bge	s5,s11,80000d66 <_l74>

0000000080000d2e <_l64>:
    80000d2e:	09d44953          	fsub.s	fs2,fs0,ft9,rmm

0000000080000d32 <_l65>:
    80000d32:	ea4a27c3          	fmadd.d	fa5,fs4,ft4,ft9,rdn

0000000080000d36 <_l66>:
    80000d36:	8dad                	xor	a1,a1,a1
    80000d38:	4d0d                	li	s10,3
    80000d3a:	0d72                	sll	s10,s10,0x1c
    80000d3c:	95ea                	add	a1,a1,s10
    80000d3e:	1445af73          	csrrs	t5,sip,a1

0000000080000d42 <_l67>:
    80000d42:	0ff0000f          	fence

0000000080000d46 <_l68>:
    80000d46:	0b558663          	beq	a1,s5,80000df2 <_l100>

0000000080000d4a <_l69>:
    80000d4a:	f00586d3          	fmv.w.x	fa3,a1

0000000080000d4e <_l70>:
    80000d4e:	00000d97          	auipc	s11,0x0
    80000d52:	05ed8d93          	add	s11,s11,94 # 80000dac <_l87>
    80000d56:	000d8be7          	jalr	s7,s11

0000000080000d5a <_l71>:
    80000d5a:	015748b3          	xor	a7,a4,s5

0000000080000d5e <_l72>:
    80000d5e:	41db033b          	subw	t1,s6,t4

0000000080000d62 <_l73>:
    80000d62:	027f41b3          	div	gp,t5,t2

0000000080000d66 <_l74>:
    80000d66:	097e07d3          	fsub.s	fa5,ft8,fs7,rne

0000000080000d6a <_l75>:
    80000d6a:	a2a31053          	flt.d	zero,ft6,fa0

0000000080000d6e <_l76>:
    80000d6e:	01d259bb          	srlw	s3,tp,t4

0000000080000d72 <_l77>:
    80000d72:	b90a444b          	fnmsub.s	fs0,fs4,fa6,fs7,rmm

0000000080000d76 <_l78>:
    80000d76:	211b25d3          	fsgnjx.s	fa1,fs6,fa7

0000000080000d7a <_l79>:
    80000d7a:	0005f597          	auipc	a1,0x5f
    80000d7e:	2e658593          	add	a1,a1,742 # 80060060 <d_5_4>
    80000d82:	15d1                	add	a1,a1,-12
    80000d84:	e1a5ad2f          	amomaxu.w	s10,s10,(a1)

0000000080000d88 <_l80>:
    80000d88:	02b501bb          	mulw	gp,a0,a1

0000000080000d8c <_l81>:
    80000d8c:	00ca0d3b          	addw	s10,s4,a2

0000000080000d90 <_l82>:
    80000d90:	01459263          	bne	a1,s4,80000d94 <_l83>

0000000080000d94 <_l83>:
    80000d94:	00000073          	ecall

0000000080000d98 <_l84>:
    80000d98:	d031aa53          	fcvt.s.lu	fs4,gp,rdn

0000000080000d9c <_l85>:
    80000d9c:	0004f697          	auipc	a3,0x4f
    80000da0:	2f468693          	add	a3,a3,756 # 80050090 <d_4_7>
    80000da4:	0156a223          	sw	s5,4(a3)

0000000080000da8 <_l86>:
    80000da8:	e2050cd3          	fmv.x.d	s9,fa0

0000000080000dac <_l87>:
    80000dac:	0140056f          	jal	a0,80000dc0 <_l89>

0000000080000db0 <_l88>:
    80000db0:	4305                	li	t1,1
    80000db2:	00001197          	auipc	gp,0x1
    80000db6:	62e18193          	add	gp,gp,1582 # 800023e0 <end_signature>
    80000dba:	01c1                	add	gp,gp,16
    80000dbc:	12330073          	sfence.vma	t1,gp

0000000080000dc0 <_l89>:
    80000dc0:	036b04b3          	mul	s1,s6,s6

0000000080000dc4 <_l90>:
    80000dc4:	a1048b53          	fle.s	s6,fs1,fa6

0000000080000dc8 <_l91>:
    80000dc8:	0115f133          	and	sp,a1,a7

0000000080000dcc <_l92>:
    80000dcc:	40b1d2b3          	sra	t0,gp,a1

0000000080000dd0 <_l93>:
    80000dd0:	00860263          	beq	a2,s0,80000dd4 <_l94>

0000000080000dd4 <_l94>:
    80000dd4:	620a394b          	fnmsub.d	fs2,fs4,ft0,fa2,rup

0000000080000dd8 <_l95>:
    80000dd8:	11f98753          	fmul.s	fa4,fs3,ft11,rne

0000000080000ddc <_l96>:
    80000ddc:	0080046f          	jal	s0,80000de4 <_l98>

0000000080000de0 <_l97>:
    80000de0:	d03dced3          	fcvt.s.lu	ft9,s11,rmm

0000000080000de4 <_l98>:
    80000de4:	d2040bd3          	fcvt.d.w	fs7,s0

0000000080000de8 <_l99>:
    80000de8:	00000117          	auipc	sp,0x0
    80000dec:	01610113          	add	sp,sp,22 # 80000dfe <_l101>
    80000df0:	24c2                	fld	fs1,16(sp)

0000000080000df2 <_l100>:
    80000df2:	0000f697          	auipc	a3,0xf
    80000df6:	23e68693          	add	a3,a3,574 # 80010030 <d_0_1>
    80000dfa:	fec6a623          	sw	a2,-20(a3)

0000000080000dfe <_l101>:
    80000dfe:	00000d17          	auipc	s10,0x0
    80000e02:	010d0d13          	add	s10,s10,16 # 80000e0e <_l102>
    80000e06:	341d1073          	csrw	mepc,s10
    80000e0a:	30200073          	mret

0000000080000e0e <_l102>:
    80000e0e:	00000073          	ecall
	...

0000000080000e14 <_end_main>:
	...

Disassembly of section .tohost:

0000000080001000 <tohost>:
	...

0000000080001040 <fromhost>:
	...
