
input_nax_86.elf:     file format elf64-littleriscv


Disassembly of section .text.init:

0000000080000000 <_start>:
    80000000:	00010f97          	auipc	t6,0x10
    80000004:	000f8f93          	mv	t6,t6
    80000008:	000fb083          	ld	ra,0(t6) # 80010000 <_random_data0>
    8000000c:	008fb103          	ld	sp,8(t6)
    80000010:	010fb183          	ld	gp,16(t6)
    80000014:	018fb203          	ld	tp,24(t6)
    80000018:	020fb283          	ld	t0,32(t6)
    8000001c:	028fb303          	ld	t1,40(t6)
    80000020:	030fb383          	ld	t2,48(t6)
    80000024:	038fb403          	ld	s0,56(t6)
    80000028:	040fb483          	ld	s1,64(t6)
    8000002c:	048fb503          	ld	a0,72(t6)
    80000030:	050fb583          	ld	a1,80(t6)
    80000034:	058fb603          	ld	a2,88(t6)
    80000038:	060fb683          	ld	a3,96(t6)
    8000003c:	068fb703          	ld	a4,104(t6)
    80000040:	070fb783          	ld	a5,112(t6)
    80000044:	078fb803          	ld	a6,120(t6)
    80000048:	080fb883          	ld	a7,128(t6)
    8000004c:	088fb903          	ld	s2,136(t6)
    80000050:	090fb983          	ld	s3,144(t6)
    80000054:	098fba03          	ld	s4,152(t6)
    80000058:	0a0fba83          	ld	s5,160(t6)
    8000005c:	0a8fbb03          	ld	s6,168(t6)
    80000060:	0b0fbb83          	ld	s7,176(t6)
    80000064:	0b8fbc03          	ld	s8,184(t6)
    80000068:	0c0fbc83          	ld	s9,192(t6)
    8000006c:	0c8fbd03          	ld	s10,200(t6)
    80000070:	0d0fbd83          	ld	s11,208(t6)
    80000074:	0d8fbe03          	ld	t3,216(t6)
    80000078:	0e0fbe83          	ld	t4,224(t6)
    8000007c:	0e8fbf03          	ld	t5,232(t6)
    80000080:	0f0fbf83          	ld	t6,240(t6)
    80000084:	21d0006f          	j	80000aa0 <reset_vector>

0000000080000088 <init_freg>:
    80000088:	00020f97          	auipc	t6,0x20
    8000008c:	f78f8f93          	add	t6,t6,-136 # 80020000 <_random_data1>
    80000090:	000fa007          	flw	ft0,0(t6)
    80000094:	008fa087          	flw	ft1,8(t6)
    80000098:	010fa107          	flw	ft2,16(t6)
    8000009c:	018fb187          	fld	ft3,24(t6)
    800000a0:	020fb207          	fld	ft4,32(t6)
    800000a4:	028fb287          	fld	ft5,40(t6)
    800000a8:	030fb307          	fld	ft6,48(t6)
    800000ac:	038fa387          	flw	ft7,56(t6)
    800000b0:	040fb407          	fld	fs0,64(t6)
    800000b4:	048fb487          	fld	fs1,72(t6)
    800000b8:	050fa507          	flw	fa0,80(t6)
    800000bc:	058fb587          	fld	fa1,88(t6)
    800000c0:	060fb607          	fld	fa2,96(t6)
    800000c4:	068fb687          	fld	fa3,104(t6)
    800000c8:	070fa707          	flw	fa4,112(t6)
    800000cc:	078fb787          	fld	fa5,120(t6)
    800000d0:	080fb807          	fld	fa6,128(t6)
    800000d4:	088fa887          	flw	fa7,136(t6)
    800000d8:	090fa907          	flw	fs2,144(t6)
    800000dc:	098fa987          	flw	fs3,152(t6)
    800000e0:	0a0fba07          	fld	fs4,160(t6)
    800000e4:	0a8faa87          	flw	fs5,168(t6)
    800000e8:	0b0fbb07          	fld	fs6,176(t6)
    800000ec:	0b8fbb87          	fld	fs7,184(t6)
    800000f0:	0c0fbc07          	fld	fs8,192(t6)
    800000f4:	0c8fbc87          	fld	fs9,200(t6)
    800000f8:	0d0fbd07          	fld	fs10,208(t6)
    800000fc:	0d8fbd87          	fld	fs11,216(t6)
    80000100:	0e0fbe07          	fld	ft8,224(t6)
    80000104:	0e8fae87          	flw	ft9,232(t6)
    80000108:	0f0faf07          	flw	ft10,240(t6)
    8000010c:	0f8faf87          	flw	ft11,248(t6)
    80000110:	8082                	ret
    80000112:	0001                	nop
    80000114:	00000013          	nop
    80000118:	00000013          	nop
    8000011c:	00000013          	nop

0000000080000120 <_end_suffix>:
    80000120:	00000073          	ecall
    80000124:	00000013          	nop
    80000128:	00000013          	nop
    8000012c:	00000013          	nop

0000000080000130 <csr_dump>:
    80000130:	00002097          	auipc	ra,0x2
    80000134:	0d008093          	add	ra,ra,208 # 80002200 <csr_output_data>
    80000138:	10002173          	csrr	sp,sstatus
    8000013c:	0420bc23          	sd	sp,88(ra)
    80000140:	10402173          	csrr	sp,sie
    80000144:	0620b823          	sd	sp,112(ra)
    80000148:	10502173          	csrr	sp,stvec
    8000014c:	0620bc23          	sd	sp,120(ra)
    80000150:	10602173          	csrr	sp,scounteren
    80000154:	0820b023          	sd	sp,128(ra)
    80000158:	14002173          	csrr	sp,sscratch
    8000015c:	0820b423          	sd	sp,136(ra)
    80000160:	14102173          	csrr	sp,sepc
    80000164:	0820b823          	sd	sp,144(ra)
    80000168:	14202173          	csrr	sp,scause
    8000016c:	0820bc23          	sd	sp,152(ra)
    80000170:	14302173          	csrr	sp,stval
    80000174:	0a20b023          	sd	sp,160(ra)
    80000178:	14402173          	csrr	sp,sip
    8000017c:	f7f17113          	and	sp,sp,-129
    80000180:	0a20b423          	sd	sp,168(ra)
    80000184:	18002173          	csrr	sp,satp
    80000188:	0a20b823          	sd	sp,176(ra)
    8000018c:	f1402173          	csrr	sp,mhartid
    80000190:	0a20bc23          	sd	sp,184(ra)
    80000194:	30002173          	csrr	sp,mstatus
    80000198:	0c20b023          	sd	sp,192(ra)
    8000019c:	30202173          	csrr	sp,medeleg
    800001a0:	0c20b423          	sd	sp,200(ra)
    800001a4:	30302173          	csrr	sp,mideleg
    800001a8:	0c20b823          	sd	sp,208(ra)
    800001ac:	30402173          	csrr	sp,mie
    800001b0:	0c20bc23          	sd	sp,216(ra)
    800001b4:	30502173          	csrr	sp,mtvec
    800001b8:	0e20b023          	sd	sp,224(ra)
    800001bc:	30602173          	csrr	sp,mcounteren
    800001c0:	0e20b423          	sd	sp,232(ra)
    800001c4:	34002173          	csrr	sp,mscratch
    800001c8:	0e20b823          	sd	sp,240(ra)
    800001cc:	34102173          	csrr	sp,mepc
    800001d0:	0e20bc23          	sd	sp,248(ra)
    800001d4:	34202173          	csrr	sp,mcause
    800001d8:	1020b023          	sd	sp,256(ra)
    800001dc:	34302173          	csrr	sp,mtval
    800001e0:	1020b423          	sd	sp,264(ra)
    800001e4:	34402173          	csrr	sp,mip
    800001e8:	f7f17113          	and	sp,sp,-129
    800001ec:	1020b823          	sd	sp,272(ra)
    800001f0:	6519                	lui	a0,0x6
    800001f2:	30052073          	csrs	mstatus,a0

00000000800001f6 <fcsrs_dump>:
    800001f6:	00102173          	frflags	sp
    800001fa:	0420b023          	sd	sp,64(ra)
    800001fe:	00202173          	frrm	sp
    80000202:	0420b423          	sd	sp,72(ra)
    80000206:	00302173          	frcsr	sp
    8000020a:	0420b823          	sd	sp,80(ra)

000000008000020e <reg_dump>:
    8000020e:	00002097          	auipc	ra,0x2
    80000212:	df208093          	add	ra,ra,-526 # 80002000 <begin_signature>
    80000216:	0000b023          	sd	zero,0(ra)
    8000021a:	0020b823          	sd	sp,16(ra)
    8000021e:	0030bc23          	sd	gp,24(ra)
    80000222:	0240b023          	sd	tp,32(ra)
    80000226:	0250b423          	sd	t0,40(ra)
    8000022a:	0260b823          	sd	t1,48(ra)
    8000022e:	0270bc23          	sd	t2,56(ra)
    80000232:	0480b023          	sd	s0,64(ra)
    80000236:	0490b423          	sd	s1,72(ra)
    8000023a:	04a0b823          	sd	a0,80(ra)
    8000023e:	04b0bc23          	sd	a1,88(ra)
    80000242:	06c0b023          	sd	a2,96(ra)
    80000246:	06d0b423          	sd	a3,104(ra)
    8000024a:	06e0b823          	sd	a4,112(ra)
    8000024e:	06f0bc23          	sd	a5,120(ra)
    80000252:	0900b023          	sd	a6,128(ra)
    80000256:	0910b423          	sd	a7,136(ra)
    8000025a:	0920b823          	sd	s2,144(ra)
    8000025e:	0930bc23          	sd	s3,152(ra)
    80000262:	0b40b023          	sd	s4,160(ra)
    80000266:	0b50b423          	sd	s5,168(ra)
    8000026a:	0b60b823          	sd	s6,176(ra)
    8000026e:	0b70bc23          	sd	s7,184(ra)
    80000272:	0d80b023          	sd	s8,192(ra)
    80000276:	0d90b423          	sd	s9,200(ra)
    8000027a:	0db0bc23          	sd	s11,216(ra)
    8000027e:	0fc0b023          	sd	t3,224(ra)
    80000282:	0fd0b423          	sd	t4,232(ra)
    80000286:	0fe0b823          	sd	t5,240(ra)

000000008000028a <freg_dump>:
    8000028a:	00002097          	auipc	ra,0x2
    8000028e:	e7608093          	add	ra,ra,-394 # 80002100 <freg_output_data>
    80000292:	0010a427          	fsw	ft1,8(ra)
    80000296:	0020a827          	fsw	ft2,16(ra)
    8000029a:	0270ac27          	fsw	ft7,56(ra)
    8000029e:	0490a427          	fsw	fs1,72(ra)
    800002a2:	04a0a827          	fsw	fa0,80(ra)
    800002a6:	06c0a027          	fsw	fa2,96(ra)
    800002aa:	06d0a427          	fsw	fa3,104(ra)
    800002ae:	0b50a427          	fsw	fs5,168(ra)
    800002b2:	0b60a827          	fsw	fs6,176(ra)
    800002b6:	0d90a427          	fsw	fs9,200(ra)
    800002ba:	0da0a827          	fsw	fs10,208(ra)
    800002be:	0fc0a027          	fsw	ft8,224(ra)
    800002c2:	0fd0a427          	fsw	ft9,232(ra)
    800002c6:	0fe0a827          	fsw	ft10,240(ra)
    800002ca:	0ff0ac27          	fsw	ft11,248(ra)
    800002ce:	00002097          	auipc	ra,0x2
    800002d2:	e3208093          	add	ra,ra,-462 # 80002100 <freg_output_data>
    800002d6:	0000b027          	fsd	ft0,0(ra)
    800002da:	0030bc27          	fsd	ft3,24(ra)
    800002de:	0240b027          	fsd	ft4,32(ra)
    800002e2:	0250b427          	fsd	ft5,40(ra)
    800002e6:	0260b827          	fsd	ft6,48(ra)
    800002ea:	0480b027          	fsd	fs0,64(ra)
    800002ee:	04b0bc27          	fsd	fa1,88(ra)
    800002f2:	06e0b827          	fsd	fa4,112(ra)
    800002f6:	06f0bc27          	fsd	fa5,120(ra)
    800002fa:	0900b027          	fsd	fa6,128(ra)
    800002fe:	0910b427          	fsd	fa7,136(ra)
    80000302:	0920b827          	fsd	fs2,144(ra)
    80000306:	0930bc27          	fsd	fs3,152(ra)
    8000030a:	0b40b027          	fsd	fs4,160(ra)
    8000030e:	0b70bc27          	fsd	fs7,184(ra)
    80000312:	0d80b027          	fsd	fs8,192(ra)
    80000316:	0db0bc27          	fsd	fs11,216(ra)
    8000031a:	00002097          	auipc	ra,0x2
    8000031e:	ee608093          	add	ra,ra,-282 # 80002200 <csr_output_data>
    80000322:	00002117          	auipc	sp,0x2
    80000326:	cde10113          	add	sp,sp,-802 # 80002000 <begin_signature>
    8000032a:	00002197          	auipc	gp,0x2
    8000032e:	dd618193          	add	gp,gp,-554 # 80002100 <freg_output_data>
    80000332:	00010217          	auipc	tp,0x10
    80000336:	cce20213          	add	tp,tp,-818 # 80010000 <_random_data0>
    8000033a:	00020297          	auipc	t0,0x20
    8000033e:	cc628293          	add	t0,t0,-826 # 80020000 <_random_data1>
    80000342:	00030317          	auipc	t1,0x30
    80000346:	cbe30313          	add	t1,t1,-834 # 80030000 <_random_data2>
    8000034a:	00040397          	auipc	t2,0x40
    8000034e:	cb638393          	add	t2,t2,-842 # 80040000 <_random_data3>
    80000352:	00050417          	auipc	s0,0x50
    80000356:	cae40413          	add	s0,s0,-850 # 80050000 <_random_data4>
    8000035a:	00060497          	auipc	s1,0x60
    8000035e:	ca648493          	add	s1,s1,-858 # 80060000 <_random_data5>

0000000080000362 <load_xreg_nax>:
    80000362:	6502                	ld	a0,0(sp)
    80000364:	6522                	ld	a0,8(sp)
    80000366:	6542                	ld	a0,16(sp)
    80000368:	6562                	ld	a0,24(sp)
    8000036a:	7502                	ld	a0,32(sp)
    8000036c:	7522                	ld	a0,40(sp)
    8000036e:	7542                	ld	a0,48(sp)
    80000370:	7562                	ld	a0,56(sp)
    80000372:	6506                	ld	a0,64(sp)
    80000374:	6526                	ld	a0,72(sp)
    80000376:	6546                	ld	a0,80(sp)
    80000378:	6566                	ld	a0,88(sp)
    8000037a:	7506                	ld	a0,96(sp)
    8000037c:	7526                	ld	a0,104(sp)
    8000037e:	7546                	ld	a0,112(sp)
    80000380:	7566                	ld	a0,120(sp)
    80000382:	650a                	ld	a0,128(sp)
    80000384:	652a                	ld	a0,136(sp)
    80000386:	654a                	ld	a0,144(sp)
    80000388:	656a                	ld	a0,152(sp)
    8000038a:	750a                	ld	a0,160(sp)
    8000038c:	752a                	ld	a0,168(sp)
    8000038e:	754a                	ld	a0,176(sp)
    80000390:	756a                	ld	a0,184(sp)
    80000392:	650e                	ld	a0,192(sp)
    80000394:	652e                	ld	a0,200(sp)
    80000396:	654e                	ld	a0,208(sp)
    80000398:	656e                	ld	a0,216(sp)
    8000039a:	750e                	ld	a0,224(sp)
    8000039c:	752e                	ld	a0,232(sp)
    8000039e:	754e                	ld	a0,240(sp)
    800003a0:	756e                	ld	a0,248(sp)

00000000800003a2 <load_freg_nax>:
    800003a2:	0001b507          	fld	fa0,0(gp)
    800003a6:	0081b507          	fld	fa0,8(gp)
    800003aa:	0101b507          	fld	fa0,16(gp)
    800003ae:	0181b507          	fld	fa0,24(gp)
    800003b2:	0201b507          	fld	fa0,32(gp)
    800003b6:	0281b507          	fld	fa0,40(gp)
    800003ba:	0301b507          	fld	fa0,48(gp)
    800003be:	0381b507          	fld	fa0,56(gp)
    800003c2:	0401b507          	fld	fa0,64(gp)
    800003c6:	0481b507          	fld	fa0,72(gp)
    800003ca:	0501b507          	fld	fa0,80(gp)
    800003ce:	0581b507          	fld	fa0,88(gp)
    800003d2:	0601b507          	fld	fa0,96(gp)
    800003d6:	0681b507          	fld	fa0,104(gp)
    800003da:	0701b507          	fld	fa0,112(gp)
    800003de:	0781b507          	fld	fa0,120(gp)
    800003e2:	0801b507          	fld	fa0,128(gp)
    800003e6:	0881b507          	fld	fa0,136(gp)
    800003ea:	0901b507          	fld	fa0,144(gp)
    800003ee:	0981b507          	fld	fa0,152(gp)
    800003f2:	0a01b507          	fld	fa0,160(gp)
    800003f6:	0a81b507          	fld	fa0,168(gp)
    800003fa:	0b01b507          	fld	fa0,176(gp)
    800003fe:	0b81b507          	fld	fa0,184(gp)
    80000402:	0c01b507          	fld	fa0,192(gp)
    80000406:	0c81b507          	fld	fa0,200(gp)
    8000040a:	0d01b507          	fld	fa0,208(gp)
    8000040e:	0d81b507          	fld	fa0,216(gp)
    80000412:	0e01b507          	fld	fa0,224(gp)
    80000416:	0e81b507          	fld	fa0,232(gp)
    8000041a:	0f01b507          	fld	fa0,240(gp)
    8000041e:	0f81b507          	fld	fa0,248(gp)

0000000080000422 <load_csr_nax>:
    80000422:	0000b503          	ld	a0,0(ra)
    80000426:	0080b503          	ld	a0,8(ra)
    8000042a:	0100b503          	ld	a0,16(ra)
    8000042e:	0180b503          	ld	a0,24(ra)
    80000432:	0200b503          	ld	a0,32(ra)
    80000436:	0280b503          	ld	a0,40(ra)
    8000043a:	0300b503          	ld	a0,48(ra)
    8000043e:	0380b503          	ld	a0,56(ra)
    80000442:	0400b503          	ld	a0,64(ra)
    80000446:	0480b503          	ld	a0,72(ra)
    8000044a:	0500b503          	ld	a0,80(ra)
    8000044e:	0580b503          	ld	a0,88(ra)
    80000452:	0600b503          	ld	a0,96(ra)
    80000456:	0680b503          	ld	a0,104(ra)
    8000045a:	0700b503          	ld	a0,112(ra)
    8000045e:	0780b503          	ld	a0,120(ra)
    80000462:	0800b503          	ld	a0,128(ra)
    80000466:	0880b503          	ld	a0,136(ra)
    8000046a:	0900b503          	ld	a0,144(ra)
    8000046e:	0980b503          	ld	a0,152(ra)
    80000472:	0a00b503          	ld	a0,160(ra)
    80000476:	0a80b503          	ld	a0,168(ra)
    8000047a:	0b00b503          	ld	a0,176(ra)
    8000047e:	0b80b503          	ld	a0,184(ra)
    80000482:	0c00b503          	ld	a0,192(ra)
    80000486:	0c80b503          	ld	a0,200(ra)
    8000048a:	0d00b503          	ld	a0,208(ra)
    8000048e:	0d80b503          	ld	a0,216(ra)
    80000492:	0e00b503          	ld	a0,224(ra)
    80000496:	0e80b503          	ld	a0,232(ra)
    8000049a:	0f00b503          	ld	a0,240(ra)
    8000049e:	0f80b503          	ld	a0,248(ra)
    800004a2:	1000b503          	ld	a0,256(ra)
    800004a6:	1080b503          	ld	a0,264(ra)
    800004aa:	1100b503          	ld	a0,272(ra)
    800004ae:	1180b503          	ld	a0,280(ra)
    800004b2:	1200b503          	ld	a0,288(ra)
    800004b6:	1280b503          	ld	a0,296(ra)
    800004ba:	1300b503          	ld	a0,304(ra)
    800004be:	1380b503          	ld	a0,312(ra)
    800004c2:	1400b503          	ld	a0,320(ra)
    800004c6:	1480b503          	ld	a0,328(ra)
    800004ca:	1500b503          	ld	a0,336(ra)
    800004ce:	1580b503          	ld	a0,344(ra)
    800004d2:	1600b503          	ld	a0,352(ra)
    800004d6:	1680b503          	ld	a0,360(ra)
    800004da:	1700b503          	ld	a0,368(ra)
    800004de:	1780b503          	ld	a0,376(ra)
    800004e2:	1800b503          	ld	a0,384(ra)
    800004e6:	1880b503          	ld	a0,392(ra)
    800004ea:	1900b503          	ld	a0,400(ra)
    800004ee:	1980b503          	ld	a0,408(ra)
    800004f2:	1a00b503          	ld	a0,416(ra)
    800004f6:	1a80b503          	ld	a0,424(ra)
    800004fa:	1b00b503          	ld	a0,432(ra)
    800004fe:	1b80b503          	ld	a0,440(ra)
    80000502:	1c00b503          	ld	a0,448(ra)
    80000506:	1c80b503          	ld	a0,456(ra)
    8000050a:	1d00b503          	ld	a0,464(ra)
    8000050e:	1d80b503          	ld	a0,472(ra)

0000000080000512 <load_raddom_data0_nax>:
    80000512:	00023503          	ld	a0,0(tp) # 0 <_start-0x80000000>
    80000516:	00823503          	ld	a0,8(tp) # 8 <_start-0x7ffffff8>
    8000051a:	01023503          	ld	a0,16(tp) # 10 <_start-0x7ffffff0>
    8000051e:	01823503          	ld	a0,24(tp) # 18 <_start-0x7fffffe8>
    80000522:	02023503          	ld	a0,32(tp) # 20 <_start-0x7fffffe0>
    80000526:	02823503          	ld	a0,40(tp) # 28 <_start-0x7fffffd8>
    8000052a:	03023503          	ld	a0,48(tp) # 30 <_start-0x7fffffd0>
    8000052e:	03823503          	ld	a0,56(tp) # 38 <_start-0x7fffffc8>
    80000532:	04023503          	ld	a0,64(tp) # 40 <_start-0x7fffffc0>
    80000536:	04823503          	ld	a0,72(tp) # 48 <_start-0x7fffffb8>
    8000053a:	05023503          	ld	a0,80(tp) # 50 <_start-0x7fffffb0>
    8000053e:	05823503          	ld	a0,88(tp) # 58 <_start-0x7fffffa8>
    80000542:	06023503          	ld	a0,96(tp) # 60 <_start-0x7fffffa0>
    80000546:	06823503          	ld	a0,104(tp) # 68 <_start-0x7fffff98>
    8000054a:	07023503          	ld	a0,112(tp) # 70 <_start-0x7fffff90>
    8000054e:	07823503          	ld	a0,120(tp) # 78 <_start-0x7fffff88>
    80000552:	08023503          	ld	a0,128(tp) # 80 <_start-0x7fffff80>
    80000556:	08823503          	ld	a0,136(tp) # 88 <_start-0x7fffff78>
    8000055a:	09023503          	ld	a0,144(tp) # 90 <_start-0x7fffff70>
    8000055e:	09823503          	ld	a0,152(tp) # 98 <_start-0x7fffff68>
    80000562:	0a023503          	ld	a0,160(tp) # a0 <_start-0x7fffff60>
    80000566:	0a823503          	ld	a0,168(tp) # a8 <_start-0x7fffff58>
    8000056a:	0b023503          	ld	a0,176(tp) # b0 <_start-0x7fffff50>
    8000056e:	0b823503          	ld	a0,184(tp) # b8 <_start-0x7fffff48>
    80000572:	0c023503          	ld	a0,192(tp) # c0 <_start-0x7fffff40>
    80000576:	0c823503          	ld	a0,200(tp) # c8 <_start-0x7fffff38>
    8000057a:	0d023503          	ld	a0,208(tp) # d0 <_start-0x7fffff30>
    8000057e:	0d823503          	ld	a0,216(tp) # d8 <_start-0x7fffff28>
    80000582:	0e023503          	ld	a0,224(tp) # e0 <_start-0x7fffff20>
    80000586:	0e823503          	ld	a0,232(tp) # e8 <_start-0x7fffff18>
    8000058a:	0f023503          	ld	a0,240(tp) # f0 <_start-0x7fffff10>
    8000058e:	0f823503          	ld	a0,248(tp) # f8 <_start-0x7fffff08>
    80000592:	10023503          	ld	a0,256(tp) # 100 <_start-0x7fffff00>
    80000596:	10823503          	ld	a0,264(tp) # 108 <_start-0x7ffffef8>
    8000059a:	11023503          	ld	a0,272(tp) # 110 <_start-0x7ffffef0>
    8000059e:	11823503          	ld	a0,280(tp) # 118 <_start-0x7ffffee8>
    800005a2:	12023503          	ld	a0,288(tp) # 120 <_start-0x7ffffee0>
    800005a6:	12823503          	ld	a0,296(tp) # 128 <_start-0x7ffffed8>
    800005aa:	13023503          	ld	a0,304(tp) # 130 <_start-0x7ffffed0>
    800005ae:	13823503          	ld	a0,312(tp) # 138 <_start-0x7ffffec8>
    800005b2:	14023503          	ld	a0,320(tp) # 140 <_start-0x7ffffec0>
    800005b6:	14823503          	ld	a0,328(tp) # 148 <_start-0x7ffffeb8>
    800005ba:	15023503          	ld	a0,336(tp) # 150 <_start-0x7ffffeb0>
    800005be:	15823503          	ld	a0,344(tp) # 158 <_start-0x7ffffea8>
    800005c2:	16023503          	ld	a0,352(tp) # 160 <_start-0x7ffffea0>
    800005c6:	16823503          	ld	a0,360(tp) # 168 <_start-0x7ffffe98>
    800005ca:	17023503          	ld	a0,368(tp) # 170 <_start-0x7ffffe90>
    800005ce:	17823503          	ld	a0,376(tp) # 178 <_start-0x7ffffe88>
    800005d2:	18023503          	ld	a0,384(tp) # 180 <_start-0x7ffffe80>
    800005d6:	18823503          	ld	a0,392(tp) # 188 <_start-0x7ffffe78>
    800005da:	19023503          	ld	a0,400(tp) # 190 <_start-0x7ffffe70>
    800005de:	19823503          	ld	a0,408(tp) # 198 <_start-0x7ffffe68>
    800005e2:	1a023503          	ld	a0,416(tp) # 1a0 <_start-0x7ffffe60>
    800005e6:	1a823503          	ld	a0,424(tp) # 1a8 <_start-0x7ffffe58>
    800005ea:	1b023503          	ld	a0,432(tp) # 1b0 <_start-0x7ffffe50>
    800005ee:	1b823503          	ld	a0,440(tp) # 1b8 <_start-0x7ffffe48>
    800005f2:	1c023503          	ld	a0,448(tp) # 1c0 <_start-0x7ffffe40>
    800005f6:	1c823503          	ld	a0,456(tp) # 1c8 <_start-0x7ffffe38>
    800005fa:	1d023503          	ld	a0,464(tp) # 1d0 <_start-0x7ffffe30>
    800005fe:	1d823503          	ld	a0,472(tp) # 1d8 <_start-0x7ffffe28>
    80000602:	1e023503          	ld	a0,480(tp) # 1e0 <_start-0x7ffffe20>
    80000606:	1e823503          	ld	a0,488(tp) # 1e8 <_start-0x7ffffe18>
    8000060a:	1f023503          	ld	a0,496(tp) # 1f0 <_start-0x7ffffe10>
    8000060e:	1f823503          	ld	a0,504(tp) # 1f8 <_start-0x7ffffe08>

0000000080000612 <load_raddom_data1_nax>:
    80000612:	0002b503          	ld	a0,0(t0)
    80000616:	0082b503          	ld	a0,8(t0)
    8000061a:	0102b503          	ld	a0,16(t0)
    8000061e:	0182b503          	ld	a0,24(t0)
    80000622:	0202b503          	ld	a0,32(t0)
    80000626:	0282b503          	ld	a0,40(t0)
    8000062a:	0302b503          	ld	a0,48(t0)
    8000062e:	0382b503          	ld	a0,56(t0)
    80000632:	0402b503          	ld	a0,64(t0)
    80000636:	0482b503          	ld	a0,72(t0)
    8000063a:	0502b503          	ld	a0,80(t0)
    8000063e:	0582b503          	ld	a0,88(t0)
    80000642:	0602b503          	ld	a0,96(t0)
    80000646:	0682b503          	ld	a0,104(t0)
    8000064a:	0702b503          	ld	a0,112(t0)
    8000064e:	0782b503          	ld	a0,120(t0)
    80000652:	0802b503          	ld	a0,128(t0)
    80000656:	0882b503          	ld	a0,136(t0)
    8000065a:	0902b503          	ld	a0,144(t0)
    8000065e:	0982b503          	ld	a0,152(t0)
    80000662:	0a02b503          	ld	a0,160(t0)
    80000666:	0a82b503          	ld	a0,168(t0)
    8000066a:	0b02b503          	ld	a0,176(t0)
    8000066e:	0b82b503          	ld	a0,184(t0)
    80000672:	0c02b503          	ld	a0,192(t0)
    80000676:	0c82b503          	ld	a0,200(t0)
    8000067a:	0d02b503          	ld	a0,208(t0)
    8000067e:	0d82b503          	ld	a0,216(t0)
    80000682:	0e02b503          	ld	a0,224(t0)
    80000686:	0e82b503          	ld	a0,232(t0)
    8000068a:	0f02b503          	ld	a0,240(t0)
    8000068e:	0f82b503          	ld	a0,248(t0)
    80000692:	1002b503          	ld	a0,256(t0)
    80000696:	1082b503          	ld	a0,264(t0)
    8000069a:	1102b503          	ld	a0,272(t0)
    8000069e:	1182b503          	ld	a0,280(t0)
    800006a2:	1202b503          	ld	a0,288(t0)
    800006a6:	1282b503          	ld	a0,296(t0)
    800006aa:	1302b503          	ld	a0,304(t0)
    800006ae:	1382b503          	ld	a0,312(t0)
    800006b2:	1402b503          	ld	a0,320(t0)
    800006b6:	1482b503          	ld	a0,328(t0)
    800006ba:	1502b503          	ld	a0,336(t0)
    800006be:	1582b503          	ld	a0,344(t0)
    800006c2:	1602b503          	ld	a0,352(t0)
    800006c6:	1682b503          	ld	a0,360(t0)
    800006ca:	1702b503          	ld	a0,368(t0)
    800006ce:	1782b503          	ld	a0,376(t0)
    800006d2:	1802b503          	ld	a0,384(t0)
    800006d6:	1882b503          	ld	a0,392(t0)
    800006da:	1902b503          	ld	a0,400(t0)
    800006de:	1982b503          	ld	a0,408(t0)
    800006e2:	1a02b503          	ld	a0,416(t0)
    800006e6:	1a82b503          	ld	a0,424(t0)
    800006ea:	1b02b503          	ld	a0,432(t0)
    800006ee:	1b82b503          	ld	a0,440(t0)
    800006f2:	1c02b503          	ld	a0,448(t0)
    800006f6:	1c82b503          	ld	a0,456(t0)
    800006fa:	1d02b503          	ld	a0,464(t0)
    800006fe:	1d82b503          	ld	a0,472(t0)
    80000702:	1e02b503          	ld	a0,480(t0)
    80000706:	1e82b503          	ld	a0,488(t0)
    8000070a:	1f02b503          	ld	a0,496(t0)
    8000070e:	1f82b503          	ld	a0,504(t0)

0000000080000712 <load_raddom_data2_nax>:
    80000712:	00033503          	ld	a0,0(t1)
    80000716:	00833503          	ld	a0,8(t1)
    8000071a:	01033503          	ld	a0,16(t1)
    8000071e:	01833503          	ld	a0,24(t1)
    80000722:	02033503          	ld	a0,32(t1)
    80000726:	02833503          	ld	a0,40(t1)
    8000072a:	03033503          	ld	a0,48(t1)
    8000072e:	03833503          	ld	a0,56(t1)
    80000732:	04033503          	ld	a0,64(t1)
    80000736:	04833503          	ld	a0,72(t1)
    8000073a:	05033503          	ld	a0,80(t1)
    8000073e:	05833503          	ld	a0,88(t1)
    80000742:	06033503          	ld	a0,96(t1)
    80000746:	06833503          	ld	a0,104(t1)
    8000074a:	07033503          	ld	a0,112(t1)
    8000074e:	07833503          	ld	a0,120(t1)
    80000752:	08033503          	ld	a0,128(t1)
    80000756:	08833503          	ld	a0,136(t1)
    8000075a:	09033503          	ld	a0,144(t1)
    8000075e:	09833503          	ld	a0,152(t1)
    80000762:	0a033503          	ld	a0,160(t1)
    80000766:	0a833503          	ld	a0,168(t1)
    8000076a:	0b033503          	ld	a0,176(t1)
    8000076e:	0b833503          	ld	a0,184(t1)
    80000772:	0c033503          	ld	a0,192(t1)
    80000776:	0c833503          	ld	a0,200(t1)
    8000077a:	0d033503          	ld	a0,208(t1)
    8000077e:	0d833503          	ld	a0,216(t1)
    80000782:	0e033503          	ld	a0,224(t1)
    80000786:	0e833503          	ld	a0,232(t1)
    8000078a:	0f033503          	ld	a0,240(t1)
    8000078e:	0f833503          	ld	a0,248(t1)
    80000792:	10033503          	ld	a0,256(t1)
    80000796:	10833503          	ld	a0,264(t1)
    8000079a:	11033503          	ld	a0,272(t1)
    8000079e:	11833503          	ld	a0,280(t1)
    800007a2:	12033503          	ld	a0,288(t1)
    800007a6:	12833503          	ld	a0,296(t1)
    800007aa:	13033503          	ld	a0,304(t1)
    800007ae:	13833503          	ld	a0,312(t1)
    800007b2:	14033503          	ld	a0,320(t1)
    800007b6:	14833503          	ld	a0,328(t1)
    800007ba:	15033503          	ld	a0,336(t1)
    800007be:	15833503          	ld	a0,344(t1)
    800007c2:	16033503          	ld	a0,352(t1)
    800007c6:	16833503          	ld	a0,360(t1)
    800007ca:	17033503          	ld	a0,368(t1)
    800007ce:	17833503          	ld	a0,376(t1)
    800007d2:	18033503          	ld	a0,384(t1)
    800007d6:	18833503          	ld	a0,392(t1)
    800007da:	19033503          	ld	a0,400(t1)
    800007de:	19833503          	ld	a0,408(t1)
    800007e2:	1a033503          	ld	a0,416(t1)
    800007e6:	1a833503          	ld	a0,424(t1)
    800007ea:	1b033503          	ld	a0,432(t1)
    800007ee:	1b833503          	ld	a0,440(t1)
    800007f2:	1c033503          	ld	a0,448(t1)
    800007f6:	1c833503          	ld	a0,456(t1)
    800007fa:	1d033503          	ld	a0,464(t1)
    800007fe:	1d833503          	ld	a0,472(t1)
    80000802:	1e033503          	ld	a0,480(t1)
    80000806:	1e833503          	ld	a0,488(t1)
    8000080a:	1f033503          	ld	a0,496(t1)
    8000080e:	1f833503          	ld	a0,504(t1)

0000000080000812 <load_raddom_data3_nax>:
    80000812:	0003b503          	ld	a0,0(t2)
    80000816:	0083b503          	ld	a0,8(t2)
    8000081a:	0103b503          	ld	a0,16(t2)
    8000081e:	0183b503          	ld	a0,24(t2)
    80000822:	0203b503          	ld	a0,32(t2)
    80000826:	0283b503          	ld	a0,40(t2)
    8000082a:	0303b503          	ld	a0,48(t2)
    8000082e:	0383b503          	ld	a0,56(t2)
    80000832:	0403b503          	ld	a0,64(t2)
    80000836:	0483b503          	ld	a0,72(t2)
    8000083a:	0503b503          	ld	a0,80(t2)
    8000083e:	0583b503          	ld	a0,88(t2)
    80000842:	0603b503          	ld	a0,96(t2)
    80000846:	0683b503          	ld	a0,104(t2)
    8000084a:	0703b503          	ld	a0,112(t2)
    8000084e:	0783b503          	ld	a0,120(t2)
    80000852:	0803b503          	ld	a0,128(t2)
    80000856:	0883b503          	ld	a0,136(t2)
    8000085a:	0903b503          	ld	a0,144(t2)
    8000085e:	0983b503          	ld	a0,152(t2)
    80000862:	0a03b503          	ld	a0,160(t2)
    80000866:	0a83b503          	ld	a0,168(t2)
    8000086a:	0b03b503          	ld	a0,176(t2)
    8000086e:	0b83b503          	ld	a0,184(t2)
    80000872:	0c03b503          	ld	a0,192(t2)
    80000876:	0c83b503          	ld	a0,200(t2)
    8000087a:	0d03b503          	ld	a0,208(t2)
    8000087e:	0d83b503          	ld	a0,216(t2)
    80000882:	0e03b503          	ld	a0,224(t2)
    80000886:	0e83b503          	ld	a0,232(t2)
    8000088a:	0f03b503          	ld	a0,240(t2)
    8000088e:	0f83b503          	ld	a0,248(t2)
    80000892:	1003b503          	ld	a0,256(t2)
    80000896:	1083b503          	ld	a0,264(t2)
    8000089a:	1103b503          	ld	a0,272(t2)
    8000089e:	1183b503          	ld	a0,280(t2)
    800008a2:	1203b503          	ld	a0,288(t2)
    800008a6:	1283b503          	ld	a0,296(t2)
    800008aa:	1303b503          	ld	a0,304(t2)
    800008ae:	1383b503          	ld	a0,312(t2)
    800008b2:	1403b503          	ld	a0,320(t2)
    800008b6:	1483b503          	ld	a0,328(t2)
    800008ba:	1503b503          	ld	a0,336(t2)
    800008be:	1583b503          	ld	a0,344(t2)
    800008c2:	1603b503          	ld	a0,352(t2)
    800008c6:	1683b503          	ld	a0,360(t2)
    800008ca:	1703b503          	ld	a0,368(t2)
    800008ce:	1783b503          	ld	a0,376(t2)
    800008d2:	1803b503          	ld	a0,384(t2)
    800008d6:	1883b503          	ld	a0,392(t2)
    800008da:	1903b503          	ld	a0,400(t2)
    800008de:	1983b503          	ld	a0,408(t2)
    800008e2:	1a03b503          	ld	a0,416(t2)
    800008e6:	1a83b503          	ld	a0,424(t2)
    800008ea:	1b03b503          	ld	a0,432(t2)
    800008ee:	1b83b503          	ld	a0,440(t2)
    800008f2:	1c03b503          	ld	a0,448(t2)
    800008f6:	1c83b503          	ld	a0,456(t2)
    800008fa:	1d03b503          	ld	a0,464(t2)
    800008fe:	1d83b503          	ld	a0,472(t2)
    80000902:	1e03b503          	ld	a0,480(t2)
    80000906:	1e83b503          	ld	a0,488(t2)
    8000090a:	1f03b503          	ld	a0,496(t2)
    8000090e:	1f83b503          	ld	a0,504(t2)

0000000080000912 <load_raddom_data4_nax>:
    80000912:	6008                	ld	a0,0(s0)
    80000914:	6408                	ld	a0,8(s0)
    80000916:	6808                	ld	a0,16(s0)
    80000918:	6c08                	ld	a0,24(s0)
    8000091a:	7008                	ld	a0,32(s0)
    8000091c:	7408                	ld	a0,40(s0)
    8000091e:	7808                	ld	a0,48(s0)
    80000920:	7c08                	ld	a0,56(s0)
    80000922:	6028                	ld	a0,64(s0)
    80000924:	6428                	ld	a0,72(s0)
    80000926:	6828                	ld	a0,80(s0)
    80000928:	6c28                	ld	a0,88(s0)
    8000092a:	7028                	ld	a0,96(s0)
    8000092c:	7428                	ld	a0,104(s0)
    8000092e:	7828                	ld	a0,112(s0)
    80000930:	7c28                	ld	a0,120(s0)
    80000932:	6048                	ld	a0,128(s0)
    80000934:	6448                	ld	a0,136(s0)
    80000936:	6848                	ld	a0,144(s0)
    80000938:	6c48                	ld	a0,152(s0)
    8000093a:	7048                	ld	a0,160(s0)
    8000093c:	7448                	ld	a0,168(s0)
    8000093e:	7848                	ld	a0,176(s0)
    80000940:	7c48                	ld	a0,184(s0)
    80000942:	6068                	ld	a0,192(s0)
    80000944:	6468                	ld	a0,200(s0)
    80000946:	6868                	ld	a0,208(s0)
    80000948:	6c68                	ld	a0,216(s0)
    8000094a:	7068                	ld	a0,224(s0)
    8000094c:	7468                	ld	a0,232(s0)
    8000094e:	7868                	ld	a0,240(s0)
    80000950:	7c68                	ld	a0,248(s0)
    80000952:	10043503          	ld	a0,256(s0)
    80000956:	10843503          	ld	a0,264(s0)
    8000095a:	11043503          	ld	a0,272(s0)
    8000095e:	11843503          	ld	a0,280(s0)
    80000962:	12043503          	ld	a0,288(s0)
    80000966:	12843503          	ld	a0,296(s0)
    8000096a:	13043503          	ld	a0,304(s0)
    8000096e:	13843503          	ld	a0,312(s0)
    80000972:	14043503          	ld	a0,320(s0)
    80000976:	14843503          	ld	a0,328(s0)
    8000097a:	15043503          	ld	a0,336(s0)
    8000097e:	15843503          	ld	a0,344(s0)
    80000982:	16043503          	ld	a0,352(s0)
    80000986:	16843503          	ld	a0,360(s0)
    8000098a:	17043503          	ld	a0,368(s0)
    8000098e:	17843503          	ld	a0,376(s0)
    80000992:	18043503          	ld	a0,384(s0)
    80000996:	18843503          	ld	a0,392(s0)
    8000099a:	19043503          	ld	a0,400(s0)
    8000099e:	19843503          	ld	a0,408(s0)
    800009a2:	1a043503          	ld	a0,416(s0)
    800009a6:	1a843503          	ld	a0,424(s0)
    800009aa:	1b043503          	ld	a0,432(s0)
    800009ae:	1b843503          	ld	a0,440(s0)
    800009b2:	1c043503          	ld	a0,448(s0)
    800009b6:	1c843503          	ld	a0,456(s0)
    800009ba:	1d043503          	ld	a0,464(s0)
    800009be:	1d843503          	ld	a0,472(s0)
    800009c2:	1e043503          	ld	a0,480(s0)
    800009c6:	1e843503          	ld	a0,488(s0)
    800009ca:	1f043503          	ld	a0,496(s0)
    800009ce:	1f843503          	ld	a0,504(s0)

00000000800009d2 <load_raddom_data5_nax>:
    800009d2:	6088                	ld	a0,0(s1)
    800009d4:	6488                	ld	a0,8(s1)
    800009d6:	6888                	ld	a0,16(s1)
    800009d8:	6c88                	ld	a0,24(s1)
    800009da:	7088                	ld	a0,32(s1)
    800009dc:	7488                	ld	a0,40(s1)
    800009de:	7888                	ld	a0,48(s1)
    800009e0:	7c88                	ld	a0,56(s1)
    800009e2:	60a8                	ld	a0,64(s1)
    800009e4:	64a8                	ld	a0,72(s1)
    800009e6:	68a8                	ld	a0,80(s1)
    800009e8:	6ca8                	ld	a0,88(s1)
    800009ea:	70a8                	ld	a0,96(s1)
    800009ec:	74a8                	ld	a0,104(s1)
    800009ee:	78a8                	ld	a0,112(s1)
    800009f0:	7ca8                	ld	a0,120(s1)
    800009f2:	60c8                	ld	a0,128(s1)
    800009f4:	64c8                	ld	a0,136(s1)
    800009f6:	68c8                	ld	a0,144(s1)
    800009f8:	6cc8                	ld	a0,152(s1)
    800009fa:	70c8                	ld	a0,160(s1)
    800009fc:	74c8                	ld	a0,168(s1)
    800009fe:	78c8                	ld	a0,176(s1)
    80000a00:	7cc8                	ld	a0,184(s1)
    80000a02:	60e8                	ld	a0,192(s1)
    80000a04:	64e8                	ld	a0,200(s1)
    80000a06:	68e8                	ld	a0,208(s1)
    80000a08:	6ce8                	ld	a0,216(s1)
    80000a0a:	70e8                	ld	a0,224(s1)
    80000a0c:	74e8                	ld	a0,232(s1)
    80000a0e:	78e8                	ld	a0,240(s1)
    80000a10:	7ce8                	ld	a0,248(s1)
    80000a12:	1004b503          	ld	a0,256(s1)
    80000a16:	1084b503          	ld	a0,264(s1)
    80000a1a:	1104b503          	ld	a0,272(s1)
    80000a1e:	1184b503          	ld	a0,280(s1)
    80000a22:	1204b503          	ld	a0,288(s1)
    80000a26:	1284b503          	ld	a0,296(s1)
    80000a2a:	1304b503          	ld	a0,304(s1)
    80000a2e:	1384b503          	ld	a0,312(s1)
    80000a32:	1404b503          	ld	a0,320(s1)
    80000a36:	1484b503          	ld	a0,328(s1)
    80000a3a:	1504b503          	ld	a0,336(s1)
    80000a3e:	1584b503          	ld	a0,344(s1)
    80000a42:	1604b503          	ld	a0,352(s1)
    80000a46:	1684b503          	ld	a0,360(s1)
    80000a4a:	1704b503          	ld	a0,368(s1)
    80000a4e:	1784b503          	ld	a0,376(s1)
    80000a52:	1804b503          	ld	a0,384(s1)
    80000a56:	1884b503          	ld	a0,392(s1)
    80000a5a:	1904b503          	ld	a0,400(s1)
    80000a5e:	1984b503          	ld	a0,408(s1)
    80000a62:	1a04b503          	ld	a0,416(s1)
    80000a66:	1a84b503          	ld	a0,424(s1)
    80000a6a:	1b04b503          	ld	a0,432(s1)
    80000a6e:	1b84b503          	ld	a0,440(s1)
    80000a72:	1c04b503          	ld	a0,448(s1)
    80000a76:	1c84b503          	ld	a0,456(s1)
    80000a7a:	1d04b503          	ld	a0,464(s1)
    80000a7e:	1d84b503          	ld	a0,472(s1)
    80000a82:	1e04b503          	ld	a0,480(s1)
    80000a86:	1e84b503          	ld	a0,488(s1)
    80000a8a:	1f04b503          	ld	a0,496(s1)
    80000a8e:	1f84b503          	ld	a0,504(s1)

0000000080000a92 <write_tohost>:
    80000a92:	4185                	li	gp,1
    80000a94:	00000f17          	auipc	t5,0x0
    80000a98:	563f2623          	sw	gp,1388(t5) # 80001000 <tohost>

0000000080000a9c <_test_end>:
    80000a9c:	a001                	j	80000a9c <_test_end>
    80000a9e:	0001                	nop

0000000080000aa0 <reset_vector>:
    80000aa0:	30005073          	csrw	mstatus,0
    80000aa4:	f1402573          	csrr	a0,mhartid
    80000aa8:	e101                	bnez	a0,80000aa8 <reset_vector+0x8>
    80000aaa:	00000297          	auipc	t0,0x0
    80000aae:	01a28293          	add	t0,t0,26 # 80000ac4 <reset_vector+0x24>
    80000ab2:	30529073          	csrw	mtvec,t0
    80000ab6:	30205073          	csrw	medeleg,0
    80000aba:	30305073          	csrw	mideleg,0
    80000abe:	30405073          	csrw	mie,0
    80000ac2:	0001                	nop
    80000ac4:	00000297          	auipc	t0,0x0
    80000ac8:	01028293          	add	t0,t0,16 # 80000ad4 <reset_vector+0x34>
    80000acc:	30529073          	csrw	mtvec,t0
    80000ad0:	18005073          	csrw	satp,0
    80000ad4:	fffff297          	auipc	t0,0xfffff
    80000ad8:	65c28293          	add	t0,t0,1628 # 80000130 <csr_dump>
    80000adc:	30529073          	csrw	mtvec,t0
    80000ae0:	4181                	li	gp,0
    80000ae2:	4505                	li	a0,1
    80000ae4:	057e                	sll	a0,a0,0x1f
    80000ae6:	00055a63          	bgez	a0,80000afa <reset_vector+0x5a>
    80000aea:	0ff0000f          	fence
    80000aee:	4185                	li	gp,1
    80000af0:	05d00893          	li	a7,93
    80000af4:	4501                	li	a0,0
    80000af6:	00000073          	ecall
    80000afa:	fffff297          	auipc	t0,0xfffff
    80000afe:	62628293          	add	t0,t0,1574 # 80000120 <_end_suffix>
    80000b02:	10529073          	csrw	stvec,t0
    80000b06:	62ad                	lui	t0,0xb
    80000b08:	1092829b          	addw	t0,t0,265 # b109 <_start-0x7fff4ef7>
    80000b0c:	3022a073          	csrs	medeleg,t0
    80000b10:	6519                	lui	a0,0x6
    80000b12:	30052073          	csrs	mstatus,a0
    80000b16:	00305073          	csrw	fcsr,0
    80000b1a:	d6eff0ef          	jal	80000088 <init_freg>
    80000b1e:	b0201073          	csrw	minstret,zero
    80000b22:	f1402573          	csrr	a0,mhartid

0000000080000b26 <_fuzz_prefix>:
    80000b26:	3439e773          	csrrs	a4,mtval,19

0000000080000b2a <_p1>:
    80000b2a:	8d29                	xor	a0,a0,a0
    80000b2c:	4605                	li	a2,1
    80000b2e:	0672                	sll	a2,a2,0x1c
    80000b30:	9532                	add	a0,a0,a2
    80000b32:	14452573          	csrrs	a0,sip,a0

0000000080000b36 <_p2>:
    80000b36:	140855f3          	csrrw	a1,sscratch,16

0000000080000b3a <_end_prefix>:
    80000b3a:	00000297          	auipc	t0,0x0
    80000b3e:	04628293          	add	t0,t0,70 # 80000b80 <_fuzz_main>
    80000b42:	34129073          	csrw	mepc,t0
    80000b46:	4281                	li	t0,0
    80000b48:	30200073          	mret
    80000b4c:	00000013          	nop
    80000b50:	00000013          	nop
    80000b54:	00000013          	nop
    80000b58:	00000013          	nop
    80000b5c:	00000013          	nop
    80000b60:	00000013          	nop
    80000b64:	00000013          	nop
    80000b68:	00000013          	nop
    80000b6c:	00000013          	nop
    80000b70:	00000013          	nop
    80000b74:	00000013          	nop
    80000b78:	00000013          	nop
    80000b7c:	00000013          	nop

0000000080000b80 <_fuzz_main>:
    80000b80:	b1b34bcb          	fnmsub.s	fs7,ft6,fs11,fs6,rmm

0000000080000b84 <_l1>:
    80000b84:	03a6433b          	divw	t1,a2,s10

0000000080000b88 <_l2>:
    80000b88:	216307d3          	fsgnj.s	fa5,ft6,fs6

0000000080000b8c <_l3>:
    80000b8c:	0002fc17          	auipc	s8,0x2f
    80000b90:	5c4c0c13          	add	s8,s8,1476 # 80030150 <d_2_19>
    80000b94:	0c41                	add	s8,s8,16
    80000b96:	c0dc3a2f          	amominu.d	s4,a3,(s8)

0000000080000b9a <_l4>:
    80000b9a:	0002f697          	auipc	a3,0x2f
    80000b9e:	60668693          	add	a3,a3,1542 # 800301a0 <d_2_24>
    80000ba2:	1691                	add	a3,a3,-28
    80000ba4:	00c6af2f          	amoadd.w	t5,a2,(a3)

0000000080000ba8 <_l5>:
    80000ba8:	0004fc17          	auipc	s8,0x4f
    80000bac:	4b8c0c13          	add	s8,s8,1208 # 80050060 <d_4_4>
    80000bb0:	1c51                	add	s8,s8,-12
    80000bb2:	003c2a2f          	amoadd.w	s4,gp,(s8)

0000000080000bb6 <_l6>:
    80000bb6:	0002f217          	auipc	tp,0x2f
    80000bba:	4aa20213          	add	tp,tp,1194 # 80030060 <d_2_4>
    80000bbe:	0231                	add	tp,tp,12 # c <_start-0x7ffffff4>
    80000bc0:	a14226af          	amomax.w	a3,s4,(tp)

0000000080000bc4 <_l7>:
    80000bc4:	32c92acb          	fnmsub.d	fs5,fs2,fa2,ft6,rdn

0000000080000bc8 <_l8>:
    80000bc8:	0105983b          	sllw	a6,a1,a6

0000000080000bcc <_l9>:
    80000bcc:	0003f817          	auipc	a6,0x3f
    80000bd0:	53480813          	add	a6,a6,1332 # 80040100 <d_3_14>
    80000bd4:	ffe00837          	lui	a6,0xffe00
    80000bd8:	01084833          	xor	a6,a6,a6
    80000bdc:	01c81f23          	sh	t3,30(a6) # ffffffffffe0001e <_end+0xffffffff7fd9fe1e>

0000000080000be0 <_l10>:
    80000be0:	00000697          	auipc	a3,0x0
    80000be4:	13e68693          	add	a3,a3,318 # 80000d1e <_l60>
    80000be8:	34169073          	csrw	mepc,a3
    80000bec:	30200073          	mret

0000000080000bf0 <_l11>:
    80000bf0:	b9594043          	fmadd.s	ft0,fs2,fs5,fs7,rmm

0000000080000bf4 <_l12>:
    80000bf4:	21b787d3          	fsgnj.s	fa5,fa5,fs11

0000000080000bf8 <_l13>:
    80000bf8:	d23393d3          	fcvt.d.lu	ft7,t2,rtz

0000000080000bfc <_l14>:
    80000bfc:	0003fd97          	auipc	s11,0x3f
    80000c00:	454d8d93          	add	s11,s11,1108 # 80040050 <d_3_3>
    80000c04:	1dd1                	add	s11,s11,-12
    80000c06:	084da22f          	amoswap.w	tp,tp,(s11)

0000000080000c0a <_l15>:
    80000c0a:	e2071153          	fclass.d	sp,fa4

0000000080000c0e <_l16>:
    80000c0e:	7ff6841b          	addw	s0,a3,2047

0000000080000c12 <_l17>:
    80000c12:	0003fa17          	auipc	s4,0x3f
    80000c16:	4cea0a13          	add	s4,s4,1230 # 800400e0 <d_3_12>
    80000c1a:	ffba1623          	sh	s11,-20(s4)

0000000080000c1e <_l18>:
    80000c1e:	232a0953          	fsgnj.d	fs2,fs4,fs2

0000000080000c22 <_l19>:
    80000c22:	11220dd3          	fmul.s	fs11,ft4,fs2,rne

0000000080000c26 <_l20>:
    80000c26:	003b9ab3          	sll	s5,s7,gp

0000000080000c2a <_l21>:
    80000c2a:	02539633          	mulh	a2,t2,t0

0000000080000c2e <_l22>:
    80000c2e:	2a639f53          	fmax.d	ft10,ft7,ft6

0000000080000c32 <_l23>:
    80000c32:	e2009d53          	fclass.d	s10,ft1

0000000080000c36 <_l24>:
    80000c36:	e20011d3          	fclass.d	gp,ft0

0000000080000c3a <_l25>:
    80000c3a:	02e589b3          	mul	s3,a1,a4

0000000080000c3e <_l26>:
    80000c3e:	d01817d3          	fcvt.s.wu	fa5,a6,rtz

0000000080000c42 <_l27>:
    80000c42:	08c1a753          	fsub.s	fa4,ft3,fa2,rdn

0000000080000c46 <_l28>:
    80000c46:	0001f497          	auipc	s1,0x1f
    80000c4a:	4ba48493          	add	s1,s1,1210 # 80020100 <d_1_14>
    80000c4e:	14e1                	add	s1,s1,-8
    80000c50:	4124b4af          	amoor.d	s1,s2,(s1)

0000000080000c54 <_l29>:
    80000c54:	022555bb          	divuw	a1,a0,sp

0000000080000c58 <_l30>:
    80000c58:	00011a9b          	sllw	s5,sp,0x0

0000000080000c5c <_l31>:
    80000c5c:	402383bb          	subw	t2,t2,sp

0000000080000c60 <_l32>:
    80000c60:	c0058ad3          	fcvt.w.s	s5,fa1,rne

0000000080000c64 <_l33>:
    80000c64:	721f464b          	fnmsub.d	fa2,ft10,ft1,fa4,rmm

0000000080000c68 <_l34>:
    80000c68:	0005f817          	auipc	a6,0x5f
    80000c6c:	52880813          	add	a6,a6,1320 # 80060190 <d_5_23>
    80000c70:	ff083a87          	fld	fs5,-16(a6)

0000000080000c74 <_l35>:
    80000c74:	036321b3          	mulhsu	gp,t1,s6

0000000080000c78 <_l36>:
    80000c78:	0004fc97          	auipc	s9,0x4f
    80000c7c:	4e8c8c93          	add	s9,s9,1256 # 80050160 <d_4_20>
    80000c80:	0c91                	add	s9,s9,4
    80000c82:	a04caf2f          	amomax.w	t5,tp,(s9)

0000000080000c86 <_l37>:
    80000c86:	03bd26b3          	mulhsu	a3,s10,s11

0000000080000c8a <_l38>:
    80000c8a:	23a50b53          	fsgnj.d	fs6,fa0,fs10

0000000080000c8e <_l39>:
    80000c8e:	0002f117          	auipc	sp,0x2f
    80000c92:	4c210113          	add	sp,sp,1218 # 80030150 <d_2_19>
    80000c96:	61c2                	ld	gp,16(sp)

0000000080000c98 <_l40>:
    80000c98:	0257d813          	srl	a6,a5,0x25

0000000080000c9c <_l41>:
    80000c9c:	0003fe17          	auipc	t3,0x3f
    80000ca0:	394e0e13          	add	t3,t3,916 # 80040030 <d_3_1>
    80000ca4:	1e21                	add	t3,t3,-24
    80000ca6:	602e342f          	amoand.d	s0,sp,(t3)

0000000080000caa <_l42>:
    80000caa:	02985133          	divu	sp,a6,s1

0000000080000cae <_l43>:
    80000cae:	0002fc17          	auipc	s8,0x2f
    80000cb2:	492c0c13          	add	s8,s8,1170 # 80030140 <d_2_18>
    80000cb6:	0c51                	add	s8,s8,20
    80000cb8:	815c28af          	amomin.w	a7,s5,(s8)

0000000080000cbc <_l44>:
    80000cbc:	a2fd04d3          	fle.d	s1,fs10,fa5

0000000080000cc0 <_l45>:
    80000cc0:	780c0543          	fmadd.s	fa0,fs8,ft0,fa5,rne

0000000080000cc4 <_l46>:
    80000cc4:	d01f01d3          	fcvt.s.wu	ft3,t5,rne

0000000080000cc8 <_l47>:
    80000cc8:	13b0a6d3          	fmul.d	fa3,ft1,fs11,rdn

0000000080000ccc <_l48>:
    80000ccc:	a0fc1bd3          	flt.s	s7,fs8,fa5

0000000080000cd0 <_l49>:
    80000cd0:	005cc4b3          	xor	s1,s9,t0

0000000080000cd4 <_l50>:
    80000cd4:	00485e33          	srl	t3,a6,tp

0000000080000cd8 <_l51>:
    80000cd8:	10437573          	csrrc	a0,sie,6

0000000080000cdc <_l52>:
    80000cdc:	4178dc9b          	sraw	s9,a7,0x17

0000000080000ce0 <_l53>:
    80000ce0:	d03f30d3          	fcvt.s.lu	ft1,t5,rup

0000000080000ce4 <_l54>:
    80000ce4:	002cceb3          	xor	t4,s9,sp

0000000080000ce8 <_l55>:
    80000ce8:	4d81                	li	s11,0
    80000cea:	00001c17          	auipc	s8,0x1
    80000cee:	6f6c0c13          	add	s8,s8,1782 # 800023e0 <end_signature>
    80000cf2:	0c41                	add	s8,s8,16
    80000cf4:	138d8073          	sfence.vma	s11,s8

0000000080000cf8 <_l56>:
    80000cf8:	02a7f93b          	remuw	s2,a5,a0

0000000080000cfc <_l57>:
    80000cfc:	7b7a26cf          	fnmadd.d	fa3,fs4,fs7,fa5,rdn

0000000080000d00 <_l58>:
    80000d00:	4405                	li	s0,1
    80000d02:	00001497          	auipc	s1,0x1
    80000d06:	6de48493          	add	s1,s1,1758 # 800023e0 <end_signature>
    80000d0a:	04c1                	add	s1,s1,16
    80000d0c:	12940073          	sfence.vma	s0,s1

0000000080000d10 <_l59>:
    80000d10:	0004fe97          	auipc	t4,0x4f
    80000d14:	390e8e93          	add	t4,t4,912 # 800500a0 <d_4_8>
    80000d18:	1ec1                	add	t4,t4,-16
    80000d1a:	e04ea92f          	amomaxu.w	s2,tp,(t4)

0000000080000d1e <_l60>:
    80000d1e:	03532eb3          	mulhsu	t4,t1,s5

0000000080000d22 <_l61>:
    80000d22:	008aa3b3          	slt	t2,s5,s0

0000000080000d26 <_l62>:
    80000d26:	224e0453          	fsgnj.d	fs0,ft8,ft4

0000000080000d2a <_l63>:
    80000d2a:	03bade63          	bge	s5,s11,80000d66 <_l74>

0000000080000d2e <_l64>:
    80000d2e:	09d44953          	fsub.s	fs2,fs0,ft9,rmm

0000000080000d32 <_l65>:
    80000d32:	ea4a27c3          	fmadd.d	fa5,fs4,ft4,ft9,rdn

0000000080000d36 <_l66>:
    80000d36:	8dad                	xor	a1,a1,a1
    80000d38:	4d0d                	li	s10,3
    80000d3a:	0d72                	sll	s10,s10,0x1c
    80000d3c:	95ea                	add	a1,a1,s10
    80000d3e:	1445af73          	csrrs	t5,sip,a1

0000000080000d42 <_l67>:
    80000d42:	0ff0000f          	fence

0000000080000d46 <_l68>:
    80000d46:	0b558663          	beq	a1,s5,80000df2 <_l100>

0000000080000d4a <_l69>:
    80000d4a:	f00586d3          	fmv.w.x	fa3,a1

0000000080000d4e <_l70>:
    80000d4e:	00000d97          	auipc	s11,0x0
    80000d52:	05ed8d93          	add	s11,s11,94 # 80000dac <_l87>
    80000d56:	000d8be7          	jalr	s7,s11

0000000080000d5a <_l71>:
    80000d5a:	015748b3          	xor	a7,a4,s5

0000000080000d5e <_l72>:
    80000d5e:	41db033b          	subw	t1,s6,t4

0000000080000d62 <_l73>:
    80000d62:	027f41b3          	div	gp,t5,t2

0000000080000d66 <_l74>:
    80000d66:	097e07d3          	fsub.s	fa5,ft8,fs7,rne

0000000080000d6a <_l75>:
    80000d6a:	a2a31053          	flt.d	zero,ft6,fa0

0000000080000d6e <_l76>:
    80000d6e:	01d259bb          	srlw	s3,tp,t4

0000000080000d72 <_l77>:
    80000d72:	b90a444b          	fnmsub.s	fs0,fs4,fa6,fs7,rmm

0000000080000d76 <_l78>:
    80000d76:	211b25d3          	fsgnjx.s	fa1,fs6,fa7

0000000080000d7a <_l79>:
    80000d7a:	0005f597          	auipc	a1,0x5f
    80000d7e:	2e658593          	add	a1,a1,742 # 80060060 <d_5_4>
    80000d82:	15d1                	add	a1,a1,-12
    80000d84:	e1a5ad2f          	amomaxu.w	s10,s10,(a1)

0000000080000d88 <_l80>:
    80000d88:	02b501bb          	mulw	gp,a0,a1

0000000080000d8c <_l81>:
    80000d8c:	00ca0d3b          	addw	s10,s4,a2

0000000080000d90 <_l82>:
    80000d90:	01459263          	bne	a1,s4,80000d94 <_l83>

0000000080000d94 <_l83>:
    80000d94:	00000073          	ecall

0000000080000d98 <_l84>:
    80000d98:	d031aa53          	fcvt.s.lu	fs4,gp,rdn

0000000080000d9c <_l85>:
    80000d9c:	0004f697          	auipc	a3,0x4f
    80000da0:	2f468693          	add	a3,a3,756 # 80050090 <d_4_7>
    80000da4:	0156a223          	sw	s5,4(a3)

0000000080000da8 <_l86>:
    80000da8:	e2050cd3          	fmv.x.d	s9,fa0

0000000080000dac <_l87>:
    80000dac:	0140056f          	jal	a0,80000dc0 <_l89>

0000000080000db0 <_l88>:
    80000db0:	4305                	li	t1,1
    80000db2:	00001197          	auipc	gp,0x1
    80000db6:	62e18193          	add	gp,gp,1582 # 800023e0 <end_signature>
    80000dba:	01c1                	add	gp,gp,16
    80000dbc:	12330073          	sfence.vma	t1,gp

0000000080000dc0 <_l89>:
    80000dc0:	036b04b3          	mul	s1,s6,s6

0000000080000dc4 <_l90>:
    80000dc4:	a1048b53          	fle.s	s6,fs1,fa6

0000000080000dc8 <_l91>:
    80000dc8:	0115f133          	and	sp,a1,a7

0000000080000dcc <_l92>:
    80000dcc:	40b1d2b3          	sra	t0,gp,a1

0000000080000dd0 <_l93>:
    80000dd0:	00860263          	beq	a2,s0,80000dd4 <_l94>

0000000080000dd4 <_l94>:
    80000dd4:	620a394b          	fnmsub.d	fs2,fs4,ft0,fa2,rup

0000000080000dd8 <_l95>:
    80000dd8:	11f98753          	fmul.s	fa4,fs3,ft11,rne

0000000080000ddc <_l96>:
    80000ddc:	0080046f          	jal	s0,80000de4 <_l98>

0000000080000de0 <_l97>:
    80000de0:	d03dced3          	fcvt.s.lu	ft9,s11,rmm

0000000080000de4 <_l98>:
    80000de4:	d2040bd3          	fcvt.d.w	fs7,s0

0000000080000de8 <_l99>:
    80000de8:	00000117          	auipc	sp,0x0
    80000dec:	01610113          	add	sp,sp,22 # 80000dfe <_l101>
    80000df0:	24c2                	fld	fs1,16(sp)

0000000080000df2 <_l100>:
    80000df2:	0000f697          	auipc	a3,0xf
    80000df6:	23e68693          	add	a3,a3,574 # 80010030 <d_0_1>
    80000dfa:	fec6a623          	sw	a2,-20(a3)

0000000080000dfe <_l101>:
    80000dfe:	00000d17          	auipc	s10,0x0
    80000e02:	010d0d13          	add	s10,s10,16 # 80000e0e <_l102>
    80000e06:	341d1073          	csrw	mepc,s10
    80000e0a:	30200073          	mret

0000000080000e0e <_l102>:
    80000e0e:	00000073          	ecall
	...

0000000080000e14 <_end_main>:
	...

Disassembly of section .tohost:

0000000080001000 <tohost>:
	...

0000000080001040 <fromhost>:
	...

Disassembly of section .data:

0000000080002000 <begin_signature>:
	...

0000000080002008 <reg_x1_output>:
	...

0000000080002010 <reg_x2_output>:
	...

0000000080002018 <reg_x3_output>:
	...

0000000080002020 <reg_x4_output>:
	...

0000000080002028 <reg_x5_output>:
	...

0000000080002030 <reg_x6_output>:
	...

0000000080002038 <reg_x7_output>:
	...

0000000080002040 <reg_x8_output>:
	...

0000000080002048 <reg_x9_output>:
	...

0000000080002050 <reg_x10_output>:
	...

0000000080002058 <reg_x11_output>:
	...

0000000080002060 <reg_x12_output>:
	...

0000000080002068 <reg_x13_output>:
	...

0000000080002070 <reg_x14_output>:
	...

0000000080002078 <reg_x15_output>:
	...

0000000080002080 <reg_x16_output>:
	...

0000000080002088 <reg_x17_output>:
	...

0000000080002090 <reg_x18_output>:
	...

0000000080002098 <reg_x19_output>:
	...

00000000800020a0 <reg_x20_output>:
	...

00000000800020a8 <reg_x21_output>:
	...

00000000800020b0 <reg_x22_output>:
	...

00000000800020b8 <reg_x23_output>:
	...

00000000800020c0 <reg_x24_output>:
	...

00000000800020c8 <reg_x25_output>:
	...

00000000800020d0 <reg_x26_output>:
	...

00000000800020d8 <reg_x27_output>:
	...

00000000800020e0 <reg_x28_output>:
	...

00000000800020e8 <reg_x29_output>:
	...

00000000800020f0 <reg_x30_output>:
	...

00000000800020f8 <reg_x31_output>:
	...

0000000080002100 <freg_output_data>:
	...

0000000080002108 <reg_f1_output>:
	...

0000000080002110 <reg_f2_output>:
	...

0000000080002118 <reg_f3_output>:
	...

0000000080002120 <reg_f4_output>:
	...

0000000080002128 <reg_f5_output>:
	...

0000000080002130 <reg_f6_output>:
	...

0000000080002138 <reg_f7_output>:
	...

0000000080002140 <reg_f8_output>:
	...

0000000080002148 <reg_f9_output>:
	...

0000000080002150 <reg_f10_output>:
	...

0000000080002158 <reg_f11_output>:
	...

0000000080002160 <reg_f12_output>:
	...

0000000080002168 <reg_f13_output>:
	...

0000000080002170 <reg_f14_output>:
	...

0000000080002178 <reg_f15_output>:
	...

0000000080002180 <reg_f16_output>:
	...

0000000080002188 <reg_f17_output>:
	...

0000000080002190 <reg_f18_output>:
	...

0000000080002198 <reg_f19_output>:
	...

00000000800021a0 <reg_f20_output>:
	...

00000000800021a8 <reg_f21_output>:
	...

00000000800021b0 <reg_f22_output>:
	...

00000000800021b8 <reg_f23_output>:
	...

00000000800021c0 <reg_f24_output>:
	...

00000000800021c8 <reg_f25_output>:
	...

00000000800021d0 <reg_f26_output>:
	...

00000000800021d8 <reg_f27_output>:
	...

00000000800021e0 <reg_f28_output>:
	...

00000000800021e8 <reg_f29_output>:
	...

00000000800021f0 <reg_f30_output>:
	...

00000000800021f8 <reg_f31_output>:
	...

0000000080002200 <csr_output_data>:
	...

0000000080002208 <uie_output>:
	...

0000000080002210 <utvec_output>:
	...

0000000080002218 <uscratch_output>:
	...

0000000080002220 <uepc_output>:
	...

0000000080002228 <ucause_output>:
	...

0000000080002230 <utval_output>:
	...

0000000080002238 <uip_output>:
	...

0000000080002240 <fflags_output>:
	...

0000000080002248 <frm_output>:
	...

0000000080002250 <fcsr_output>:
	...

0000000080002258 <sstatus_output>:
	...

0000000080002260 <sedeleg_output>:
	...

0000000080002268 <sideleg_output>:
	...

0000000080002270 <sie_output>:
	...

0000000080002278 <stvec_output>:
	...

0000000080002280 <scounteren_output>:
	...

0000000080002288 <sscratch_output>:
	...

0000000080002290 <sepc_output>:
	...

0000000080002298 <scause_output>:
	...

00000000800022a0 <stval_output>:
	...

00000000800022a8 <sip_output>:
	...

00000000800022b0 <satp_output>:
	...

00000000800022b8 <mhartid_output>:
	...

00000000800022c0 <mstatus_output>:
	...

00000000800022c8 <medeleg_output>:
	...

00000000800022d0 <mideleg_output>:
	...

00000000800022d8 <mie_output>:
	...

00000000800022e0 <mtvec_output>:
	...

00000000800022e8 <mcounteren_output>:
	...

00000000800022f0 <mscratch_output>:
	...

00000000800022f8 <mepc_output>:
	...

0000000080002300 <mcause_output>:
	...

0000000080002308 <mtval_output>:
	...

0000000080002310 <mip_output>:
	...

0000000080002318 <pmpcfg0_output>:
	...

0000000080002320 <pmpcfg1_output>:
	...

0000000080002328 <pmpcfg2_output>:
	...

0000000080002330 <pmpcfg3_output>:
	...

0000000080002338 <pmpaddr0_output>:
	...

0000000080002340 <pmpaddr1_output>:
	...

0000000080002348 <pmpaddr2_output>:
	...

0000000080002350 <pmpaddr3_output>:
	...

0000000080002358 <pmpaddr4_output>:
	...

0000000080002360 <pmpaddr5_output>:
	...

0000000080002368 <pmpaddr6_output>:
	...

0000000080002370 <pmpaddr7_output>:
	...

0000000080002378 <pmpaddr8_output>:
	...

0000000080002380 <pmpaddr9_output>:
	...

0000000080002388 <pmpaddr10_output>:
	...

0000000080002390 <pmpaddr11_output>:
	...

0000000080002398 <pmpaddr12_output>:
	...

00000000800023a0 <pmpaddr13_output>:
	...

00000000800023a8 <pmpaddr14_output>:
	...

00000000800023b0 <pmpaddr15_output>:
	...

00000000800023b8 <mcycle_output>:
	...

00000000800023c0 <minstret_output>:
	...

00000000800023c8 <mcycleh_output>:
	...

00000000800023d0 <minstreth_output>:
	...

Disassembly of section .data.random0:

0000000080010000 <_random_data0>:
    80010000:	27f9                	addw	a5,a5,30
    80010002:	4b86                	lw	s7,64(sp)
    80010004:	bf01                	j	8000ff14 <end_signature+0xdb34>
    80010006:	087ad1bf 574e2980 	.insn	8, 0x574e2980087ad1bf
    8001000e:	5a76                	lw	s4,124(sp)
    80010010:	c3be                	sw	a5,196(sp)
    80010012:	b31f 3073 94d8      	.insn	6, 0x94d83073b31f
    80010018:	2d3c                	fld	fa5,88(a0)
    8001001a:	06c4                	add	s1,sp,836
    8001001c:	f1dd                	bnez	a1,8000ffc2 <end_signature+0xdbe2>
    8001001e:	          	.insn	4, 0xf36b9e67

0000000080010020 <d_0_0>:
    80010020:	3c7ef36b          	.insn	4, 0x3c7ef36b
    80010024:	b639                	j	8000fb32 <end_signature+0xd752>
    80010026:	7aba                	ld	s5,424(sp)
    80010028:	b29d                	j	8000f98e <end_signature+0xd5ae>
    8001002a:	e0b2                	sd	a2,64(sp)
    8001002c:	e59eeb53          	.insn	4, 0xe59eeb53

0000000080010030 <d_0_1>:
    80010030:	7585                	lui	a1,0xfffe1
    80010032:	260c                	fld	fa1,8(a2)
    80010034:	9449                	sra	s0,s0,0x32
    80010036:	c344                	sw	s1,4(a4)
    80010038:	783c                	ld	a5,112(s0)
    8001003a:	7690                	ld	a2,40(a3)
    8001003c:	95261387          	.insn	4, 0x95261387

0000000080010040 <d_0_2>:
    80010040:	6cf2                	ld	s9,280(sp)
    80010042:	dd51                	beqz	a0,8000ffde <end_signature+0xdbfe>
    80010044:	53b6                	lw	t2,108(sp)
    80010046:	72ac                	ld	a1,96(a3)
    80010048:	aa68                	fsd	fa0,208(a2)
    8001004a:	ecad                	bnez	s1,800100c4 <d_0_10+0x4>
    8001004c:	ef82                	sd	zero,472(sp)
    8001004e:	53c6                	lw	t2,112(sp)

0000000080010050 <d_0_3>:
    80010050:	f3523cc3          	fmadd.d	fs9,ft4,fs5,ft10,rup
    80010054:	b11e                	fsd	ft7,160(sp)
    80010056:	5b24                	lw	s1,112(a4)
    80010058:	6a84                	ld	s1,16(a3)
    8001005a:	1dd4                	add	a3,sp,756
    8001005c:	9ce2                	add	s9,s9,s8
    8001005e:	9a71                	and	a2,a2,-4

0000000080010060 <d_0_4>:
    80010060:	a825                	j	80010098 <d_0_7+0x8>
    80010062:	aec37ffb          	.insn	4, 0xaec37ffb
    80010066:	eda9                	bnez	a1,800100c0 <d_0_10>
    80010068:	c449                	beqz	s0,800100f2 <d_0_13+0x2>
    8001006a:	de65                	beqz	a2,80010062 <d_0_4+0x2>
    8001006c:	8dd0                	.insn	2, 0x8dd0
    8001006e:	8bca                	mv	s7,s2

0000000080010070 <d_0_5>:
    80010070:	2cba                	fld	fs9,392(sp)
    80010072:	1182                	sll	gp,gp,0x20
    80010074:	8b78                	.insn	2, 0x8b78
    80010076:	130d                	add	t1,t1,-29
    80010078:	99c5b42b          	.insn	4, 0x99c5b42b
    8001007c:	4df9                	li	s11,30
    8001007e:	ef2e                	sd	a1,408(sp)

0000000080010080 <d_0_6>:
    80010080:	44d0dc23          	.insn	4, 0x44d0dc23
    80010084:	98b2bb6f          	jal	s6,7ff3ba0e <_start-0xc45f2>
    80010088:	fc81                	bnez	s1,8000ffa0 <end_signature+0xdbc0>
    8001008a:	834c                	.insn	2, 0x834c
    8001008c:	999487e3          	beq	s1,s9,8000fa1a <end_signature+0xd63a>

0000000080010090 <d_0_7>:
    80010090:	7db6                	ld	s11,360(sp)
    80010092:	bd12                	fsd	ft4,184(sp)
    80010094:	5e7e                	lw	t3,252(sp)
    80010096:	6892                	ld	a7,256(sp)
    80010098:	3652                	fld	fa2,304(sp)
    8001009a:	d448                	sw	a0,44(s0)
    8001009c:	87edb357          	.insn	4, 0x87edb357

00000000800100a0 <d_0_8>:
    800100a0:	da19                	beqz	a2,8000ffb6 <end_signature+0xdbd6>
    800100a2:	401835d7          	.insn	4, 0x401835d7
    800100a6:	20e1cbfb          	.insn	4, 0x20e1cbfb
    800100aa:	f4a9                	bnez	s1,8000fff4 <end_signature+0xdc14>
    800100ac:	051d                	add	a0,a0,7 # 6007 <_start-0x7fff9ff9>
    800100ae:	          	.insn	4, 0x5e2afefb

00000000800100b0 <d_0_9>:
    800100b0:	5e2a                	lw	t3,168(sp)
    800100b2:	b4e1                	j	8000fb7a <end_signature+0xd79a>
    800100b4:	09e2                	sll	s3,s3,0x18
    800100b6:	b20e                	fsd	ft3,288(sp)
    800100b8:	7a12                	ld	s4,288(sp)
    800100ba:	5e1d                	li	t3,-25
    800100bc:	e8766123          	.insn	4, 0xe8766123

00000000800100c0 <d_0_10>:
    800100c0:	577e                	lw	a4,252(sp)
    800100c2:	14b6                	sll	s1,s1,0x2d
    800100c4:	18d7c677          	.insn	4, 0x18d7c677
    800100c8:	f644d527          	.insn	4, 0xf644d527
    800100cc:	2b823327          	fsd	fs8,678(tp) # 2a6 <_start-0x7ffffd5a>

00000000800100d0 <d_0_11>:
    800100d0:	22a2                	fld	ft5,8(sp)
    800100d2:	3e72                	fld	ft8,312(sp)
    800100d4:	4195d3a7          	.insn	4, 0x4195d3a7
    800100d8:	9224                	.insn	2, 0x9224
    800100da:	f755                	bnez	a4,80010086 <d_0_6+0x6>
    800100dc:	6c5a                	ld	s8,400(sp)
    800100de:	2aa8                	fld	fa0,80(a3)

00000000800100e0 <d_0_12>:
    800100e0:	1492                	sll	s1,s1,0x24
    800100e2:	a0cd                	j	800101c4 <d_0_26+0x4>
    800100e4:	728ff9b3          	.insn	4, 0x728ff9b3
    800100e8:	c8d6f36f          	jal	t1,7ff7fd74 <_start-0x8028c>
    800100ec:	0fed                	add	t6,t6,27
    800100ee:	9e24                	.insn	2, 0x9e24

00000000800100f0 <d_0_13>:
    800100f0:	8ba0                	.insn	2, 0x8ba0
    800100f2:	b9cd                	j	8000fde4 <end_signature+0xda04>
    800100f4:	7b9ea97b          	.insn	4, 0x7b9ea97b
    800100f8:	1e48                	add	a0,sp,820
    800100fa:	2284                	fld	fs1,0(a3)
    800100fc:	1625                	add	a2,a2,-23
    800100fe:	249a                	fld	fs1,384(sp)

0000000080010100 <d_0_14>:
    80010100:	804e                	c.mv	zero,s3
    80010102:	a170                	fsd	fa2,192(a0)
    80010104:	9ce9                	.insn	2, 0x9ce9
    80010106:	ba193bdb          	.insn	4, 0xba193bdb
    8001010a:	4f3a                	lw	t5,140(sp)
    8001010c:	9485                	sra	s1,s1,0x21
    8001010e:	74cc                	ld	a1,168(s1)

0000000080010110 <d_0_15>:
    80010110:	bb6d                	j	8000feca <end_signature+0xdaea>
    80010112:	0035                	c.nop	13
    80010114:	622e                	ld	tp,200(sp)
    80010116:	f8d2                	sd	s4,112(sp)
    80010118:	81a6                	mv	gp,s1
    8001011a:	c77f4843          	.insn	4, 0xc77f4843
    8001011e:	79e1                	lui	s3,0xffff8

0000000080010120 <d_0_16>:
    80010120:	5e2c                	lw	a1,120(a2)
    80010122:	0be3ad4f          	fnmadd.d	fs10,ft7,ft10,ft1,rdn
    80010126:	0c6c                	add	a1,sp,540
    80010128:	7d06                	ld	s10,96(sp)
    8001012a:	2b08                	fld	fa0,16(a4)
    8001012c:	1846f7e7          	.insn	4, 0x1846f7e7

0000000080010130 <d_0_17>:
    80010130:	50454483          	lbu	s1,1284(a0)
    80010134:	2649                	addw	a2,a2,18
    80010136:	d1da                	sw	s6,224(sp)
    80010138:	2a1f 2ade d2cb      	.insn	6, 0xd2cb2ade2a1f
    8001013e:	2fe1                	addw	t6,t6,24

0000000080010140 <d_0_18>:
    80010140:	525e                	lw	tp,244(sp)
    80010142:	c7da                	sw	s6,204(sp)
    80010144:	7ab5                	lui	s5,0xfffed
    80010146:	856e                	mv	a0,s11
    80010148:	977d                	sra	a4,a4,0x3f
    8001014a:	c14a                	sw	s2,128(sp)
    8001014c:	09ffaa13          	slti	s4,t6,159

0000000080010150 <d_0_19>:
    80010150:	3446                	fld	fs0,112(sp)
    80010152:	7e5a                	ld	t3,432(sp)
    80010154:	3304                	fld	fs1,32(a4)
    80010156:	ae181907          	.insn	4, 0xae181907
    8001015a:	44a6                	lw	s1,72(sp)
    8001015c:	8e89                	sub	a3,a3,a0
    8001015e:	3880                	fld	fs0,48(s1)

0000000080010160 <d_0_20>:
    80010160:	1608                	add	a0,sp,800
    80010162:	b990                	fsd	fa2,48(a1)
    80010164:	403c                	lw	a5,64(s0)
    80010166:	2ee4                	fld	fs1,216(a3)
    80010168:	0cb9                	add	s9,s9,14
    8001016a:	cf46                	sw	a7,156(sp)
    8001016c:	34bc                	fld	fa5,104(s1)
    8001016e:	2846                	fld	fa6,80(sp)

0000000080010170 <d_0_21>:
    80010170:	a3ea                	fsd	fs10,448(sp)
    80010172:	080e                	sll	a6,a6,0x3
    80010174:	1ca89f83          	lh	t6,458(a7)
    80010178:	187d                	add	a6,a6,-1
    8001017a:	fcfa                	sd	t5,120(sp)
    8001017c:	f206                	sd	ra,288(sp)
    8001017e:	9ec9                	.insn	2, 0x9ec9

0000000080010180 <d_0_22>:
    80010180:	e11dd4af          	.insn	4, 0xe11dd4af
    80010184:	9c35                	addw	s0,s0,a3
    80010186:	44974b4f          	.insn	4, 0x44974b4f
    8001018a:	c22a5907          	.insn	4, 0xc22a5907
    8001018e:	          	.insn	4, 0xcb043453

0000000080010190 <d_0_23>:
    80010190:	cb04                	sw	s1,16(a4)
    80010192:	5905                	li	s2,-31
    80010194:	5b3e                	lw	s6,236(sp)
    80010196:	2856                	fld	fa6,336(sp)
    80010198:	be22                	fsd	fs0,312(sp)
    8001019a:	1691                	add	a3,a3,-28
    8001019c:	23ec                	fld	fa1,192(a5)
    8001019e:	          	or	gp,t6,-1681

00000000800101a0 <d_0_24>:
    800101a0:	1a4696ff dc32b5a2 	.insn	12, 0x54b530eedc32b5a21a4696ff
    800101a8:	54b530ee 
    800101ac:	1180                	add	s0,sp,224
    800101ae:	bf32                	fsd	fa2,440(sp)

00000000800101b0 <d_0_25>:
    800101b0:	27bef977          	.insn	4, 0x27bef977
    800101b4:	96b7f263          	bgeu	a5,a1,8000f318 <end_signature+0xcf38>
    800101b8:	c140                	sw	s0,4(a0)
    800101ba:	f33d5eb3          	.insn	4, 0xf33d5eb3
    800101be:	          	fnmadd.d	fs0,fs6,fs6,fs11,rne

00000000800101c0 <d_0_26>:
    800101c0:	1a14db6b          	.insn	4, 0x1a14db6b
    800101c4:	3496                	fld	fs1,352(sp)
    800101c6:	eeac                	sd	a1,88(a3)
    800101c8:	3b54                	fld	fa3,176(a4)
    800101ca:	8d69                	and	a0,a0,a0
    800101cc:	189733d3          	fdiv.s	ft7,fa4,fs1,rup

00000000800101d0 <d_0_27>:
    800101d0:	618d                	lui	gp,0x3
    800101d2:	749425ab          	.insn	4, 0x749425ab
    800101d6:	0be6                	sll	s7,s7,0x19
    800101d8:	1fc6                	sll	t6,t6,0x31
    800101da:	2ba9                	addw	s7,s7,10
    800101dc:	c788                	sw	a0,8(a5)
    800101de:	e4ed                	bnez	s1,800102c8 <_end_data0+0xc8>
    800101e0:	6aa0                	ld	s0,80(a3)
    800101e2:	12c5                	add	t0,t0,-15
    800101e4:	1dd8                	add	a4,sp,756
    800101e6:	a7ca                	fsd	fs2,456(sp)
    800101e8:	8f32                	mv	t5,a2
    800101ea:	7e239403          	lh	s0,2018(t2)
    800101ee:	4b03898f          	.insn	4, 0x4b03898f
    800101f2:	56a4                	lw	s1,104(a3)
    800101f4:	e2de                	sd	s7,320(sp)
    800101f6:	a264                	fsd	fs1,192(a2)
    800101f8:	489b7773          	csrrc	a4,0x489,22
    800101fc:	da78                	sw	a4,116(a2)
    800101fe:	Address 0x800101fe is out of bounds.


Disassembly of section .data.random1:

0000000080020000 <_random_data1>:
    80020000:	6d094273          	.insn	4, 0x6d094273
    80020004:	a7d1                	j	800207c8 <_end_data1+0x5c8>
    80020006:	84796307          	.insn	4, 0x84796307
    8002000a:	184c                	add	a1,sp,52
    8002000c:	81ae6c23          	.insn	4, 0x81ae6c23
    80020010:	1521                	add	a0,a0,-24
    80020012:	bf12                	fsd	ft4,440(sp)
    80020014:	040a                	sll	s0,s0,0x2
    80020016:	9868                	.insn	2, 0x9868
    80020018:	7321                	lui	t1,0xfffe8
    8002001a:	7b30                	ld	a2,112(a4)
    8002001c:	aa39e3b3          	.insn	4, 0xaa39e3b3

0000000080020020 <d_1_0>:
    80020020:	2994                	fld	fa3,16(a1)
    80020022:	9d76                	add	s10,s10,t4
    80020024:	7608                	ld	a0,40(a2)
    80020026:	b5cca233          	.insn	4, 0xb5cca233
    8002002a:	ba09                	j	8001f93c <_end_data0+0xf73c>
    8002002c:	e554                	sd	a3,136(a0)
    8002002e:	0fd4                	add	a3,sp,980

0000000080020030 <d_1_1>:
    80020030:	d0b6eb07          	.insn	4, 0xd0b6eb07
    80020034:	a351c59b          	.insn	4, 0xa351c59b
    80020038:	faf0                	sd	a2,240(a3)
    8002003a:	8bea                	mv	s7,s10
    8002003c:	2a86                	fld	fs5,64(sp)
    8002003e:	fbb0                	sd	a2,112(a5)

0000000080020040 <d_1_2>:
    80020040:	7075                	c.lui	zero,0xffffd
    80020042:	3c3d                	addw	s8,s8,-17
    80020044:	2e3a                	fld	ft8,392(sp)
    80020046:	b87a                	fsd	ft10,48(sp)
    80020048:	2f9c                	fld	fa5,24(a5)
    8002004a:	ff80d98f          	.insn	4, 0xff80d98f
    8002004e:	8f14                	.insn	2, 0x8f14

0000000080020050 <d_1_3>:
    80020050:	74b8                	ld	a4,104(s1)
    80020052:	562c                	lw	a1,104(a2)
    80020054:	397c                	fld	fa5,240(a0)
    80020056:	2012                	fld	ft0,256(sp)
    80020058:	8bc1c3b7          	lui	t2,0x8bc1c
    8002005c:	afdd                	j	80020852 <_end_data1+0x652>
    8002005e:	fd55                	bnez	a0,8002001a <_random_data1+0x1a>

0000000080020060 <d_1_4>:
    80020060:	e2595e07          	.insn	4, 0xe2595e07
    80020064:	c71e                	sw	t2,140(sp)
    80020066:	bbf1                	j	8001fe42 <_end_data0+0xfc42>
    80020068:	a521                	j	80020670 <_end_data1+0x470>
    8002006a:	f330505b          	.insn	4, 0xf330505b
    8002006e:	bb3d                	j	8001fdac <_end_data0+0xfbac>

0000000080020070 <d_1_5>:
    80020070:	8c7a                	mv	s8,t5
    80020072:	1b58                	add	a4,sp,436
    80020074:	d000                	sw	s0,32(s0)
    80020076:	6d98                	ld	a4,24(a1)
    80020078:	bc49                	j	8001fb0a <_end_data0+0xf90a>
    8002007a:	f812                	sd	tp,48(sp)
    8002007c:	fb5d1b0b          	.insn	4, 0xfb5d1b0b

0000000080020080 <d_1_6>:
    80020080:	4f4d                	li	t5,19
    80020082:	a0f57e7b          	.insn	4, 0xa0f57e7b
    80020086:	c1ed                	beqz	a1,80020168 <d_1_20+0x8>
    80020088:	d0a6ec23          	.insn	4, 0xd0a6ec23
    8002008c:	2acd                	addw	s5,s5,19 # fffffffffffed013 <_end+0xffffffff7ff8ce13>
    8002008e:	299d                	addw	s3,s3,7 # ffffffffffff8007 <_end+0xffffffff7ff97e07>

0000000080020090 <d_1_7>:
    80020090:	5407b2b3          	.insn	4, 0x5407b2b3
    80020094:	827b85fb          	.insn	4, 0x827b85fb
    80020098:	5336                	lw	t1,108(sp)
    8002009a:	dac0                	sw	s0,52(a3)
    8002009c:	83a4                	.insn	2, 0x83a4
    8002009e:	4271                	li	tp,28

00000000800200a0 <d_1_8>:
    800200a0:	9214                	.insn	2, 0x9214
    800200a2:	7e6a                	ld	t3,184(sp)
    800200a4:	081d                	add	a6,a6,7
    800200a6:	94a1e7b3          	.insn	4, 0x94a1e7b3
    800200aa:	ecec                	sd	a1,216(s1)
    800200ac:	2a29a2f3          	csrrs	t0,0x2a2,s3

00000000800200b0 <d_1_9>:
    800200b0:	0f7d                	add	t5,t5,31
    800200b2:	d771                	beqz	a4,8002007e <d_1_5+0xe>
    800200b4:	df22c7d3          	.insn	4, 0xdf22c7d3
    800200b8:	4c703447          	.insn	4, 0x4c703447
    800200bc:	4289                	li	t0,2
    800200be:	49a4                	lw	s1,80(a1)

00000000800200c0 <d_1_10>:
    800200c0:	741c                	ld	a5,40(s0)
    800200c2:	76bd                	lui	a3,0xfffef
    800200c4:	c429                	beqz	s0,8002010e <d_1_14+0xe>
    800200c6:	54b1                	li	s1,-20
    800200c8:	c653ad13          	slti	s10,t2,-923
    800200cc:	4498                	lw	a4,8(s1)
    800200ce:	e291                	bnez	a3,800200d2 <d_1_11+0x2>

00000000800200d0 <d_1_11>:
    800200d0:	fdf0                	sd	a2,248(a1)
    800200d2:	ab3e                	fsd	fa5,400(sp)
    800200d4:	3799                	addw	a5,a5,-26
    800200d6:	8a5ed95b          	.insn	4, 0x8a5ed95b
    800200da:	8b5f b0f0 e24d      	.insn	6, 0xe24db0f08b5f

00000000800200e0 <d_1_12>:
    800200e0:	ebdd                	bnez	a5,80020196 <d_1_23+0x6>
    800200e2:	e3e2                	sd	s8,448(sp)
    800200e4:	bb42                	fsd	fa6,432(sp)
    800200e6:	751e                	ld	a0,480(sp)
    800200e8:	4145                	li	sp,17
    800200ea:	a122e34b          	fnmsub.s	ft6,ft5,fs2,fs4,unknown
    800200ee:	1ab8                	add	a4,sp,376

00000000800200f0 <d_1_13>:
    800200f0:	a0e9                	j	800201ba <d_1_25+0xa>
    800200f2:	437c54d3          	.insn	4, 0x437c54d3
    800200f6:	99f4                	.insn	2, 0x99f4
    800200f8:	f5b1                	bnez	a1,80020044 <d_1_2+0x4>
    800200fa:	1499                	add	s1,s1,-26
    800200fc:	b834                	fsd	fa3,112(s0)
    800200fe:	1aea                	sll	s5,s5,0x3a

0000000080020100 <d_1_14>:
    80020100:	e5cf25e3          	.insn	4, 0xe5cf25e3
    80020104:	b939                	j	8001fd22 <_end_data0+0xfb22>
    80020106:	dc12                	sw	tp,56(sp)
    80020108:	1ea4                	add	s1,sp,888
    8002010a:	ca24                	sw	s1,80(a2)
    8002010c:	3988                	fld	fa0,48(a1)
    8002010e:	b95a                	fsd	fs6,176(sp)

0000000080020110 <d_1_15>:
    80020110:	8f8e                	mv	t6,gp
    80020112:	e8d1                	bnez	s1,800201a6 <d_1_24+0x6>
    80020114:	22bc                	fld	fa5,64(a3)
    80020116:	6435                	lui	s0,0xd
    80020118:	12f2                	sll	t0,t0,0x3c
    8002011a:	f90a                	sd	sp,176(sp)
    8002011c:	33f4                	fld	fa3,224(a5)
    8002011e:	d6a0                	sw	s0,104(a3)

0000000080020120 <d_1_16>:
    80020120:	9584                	.insn	2, 0x9584
    80020122:	aff8                	fsd	fa4,216(a5)
    80020124:	5cbc481b          	.insn	4, 0x5cbc481b
    80020128:	3958                	fld	fa4,176(a0)
    8002012a:	9dc2                	add	s11,s11,a6
    8002012c:	45d6                	lw	a1,84(sp)
    8002012e:	          	.insn	4, 0xb8439267

0000000080020130 <d_1_17>:
    80020130:	c70fb843          	.insn	4, 0xc70fb843
    80020134:	9b44764b          	fnmsub.d	fa2,fs0,fs4,fs3
    80020138:	f8b9                	bnez	s1,8002008e <d_1_6+0xe>
    8002013a:	394c                	fld	fa1,176(a0)
    8002013c:	f211                	bnez	a2,80020040 <d_1_2>
    8002013e:	2a70                	fld	fa2,208(a2)

0000000080020140 <d_1_18>:
    80020140:	29dc                	fld	fa5,144(a1)
    80020142:	ace2                	fsd	fs8,88(sp)
    80020144:	4eb1                	li	t4,12
    80020146:	8299                	srl	a3,a3,0x6
    80020148:	f09e                	sd	t2,96(sp)
    8002014a:	a5acefc7          	.insn	4, 0xa5acefc7
    8002014e:	9e0e                	add	t3,t3,gp

0000000080020150 <d_1_19>:
    80020150:	149d2b13          	slti	s6,s10,329
    80020154:	1c08                	add	a0,sp,560
    80020156:	2815                	addw	a6,a6,5
    80020158:	0e24                	add	s1,sp,792
    8002015a:	a5ad                	j	800207c4 <_end_data1+0x5c4>
    8002015c:	b8a8                	fsd	fa0,112(s1)
    8002015e:	0329                	add	t1,t1,10 # fffffffffffe800a <_end+0xffffffff7ff87e0a>

0000000080020160 <d_1_20>:
    80020160:	1764                	add	s1,sp,940
    80020162:	e47b0bb3          	.insn	4, 0xe47b0bb3
    80020166:	0d48ae3b          	.insn	4, 0x0d48ae3b
    8002016a:	7789                	lui	a5,0xfffe2
    8002016c:	f512a83b          	.insn	4, 0xf512a83b

0000000080020170 <d_1_21>:
    80020170:	e9a0                	sd	s0,80(a1)
    80020172:	4f1c                	lw	a5,24(a4)
    80020174:	8952                	mv	s2,s4
    80020176:	5c5c8c63          	beq	s9,t0,8002074e <_end_data1+0x54e>
    8002017a:	5c8e888b          	.insn	4, 0x5c8e888b
    8002017e:	c2bd                	beqz	a3,800201e4 <d_1_27+0x14>

0000000080020180 <d_1_22>:
    80020180:	920cda97          	auipc	s5,0x920cd
    80020184:	e96e                	sd	s11,144(sp)
    80020186:	c078                	sw	a4,68(s0)
    80020188:	c531                	beqz	a0,800201d4 <d_1_27+0x4>
    8002018a:	ee44                	sd	s1,152(a2)
    8002018c:	bf1c                	fsd	fa5,56(a4)
    8002018e:	9aee                	add	s5,s5,s11

0000000080020190 <d_1_23>:
    80020190:	c1be                	sw	a5,192(sp)
    80020192:	6e84                	ld	s1,24(a3)
    80020194:	7111                	add	sp,sp,-256
    80020196:	bd8c                	fsd	fa1,56(a1)
    80020198:	c9a2                	sw	s0,208(sp)
    8002019a:	8b20                	.insn	2, 0x8b20
    8002019c:	a4e5                	j	80020484 <_end_data1+0x284>
    8002019e:	6a16                	ld	s4,320(sp)

00000000800201a0 <d_1_24>:
    800201a0:	f53d                	bnez	a0,8002010e <d_1_14+0xe>
    800201a2:	6ae0                	ld	s0,208(a3)
    800201a4:	fc42                	sd	a6,56(sp)
    800201a6:	51404e2b          	.insn	4, 0x51404e2b
    800201aa:	36ce47bb          	.insn	4, 0x36ce47bb
    800201ae:	3098                	fld	fa4,32(s1)

00000000800201b0 <d_1_25>:
    800201b0:	95d0                	.insn	2, 0x95d0
    800201b2:	f5118347          	.insn	4, 0xf5118347
    800201b6:	a5eb84d7          	.insn	4, 0xa5eb84d7
    800201ba:	7e7c                	ld	a5,248(a2)
    800201bc:	7f06                	ld	t5,96(sp)
    800201be:	d425                	beqz	s0,80020126 <d_1_16+0x6>

00000000800201c0 <d_1_26>:
    800201c0:	e9ac                	sd	a1,80(a1)
    800201c2:	558d                	li	a1,-29
    800201c4:	92fd                	srl	a3,a3,0x3f
    800201c6:	6816                	ld	a6,320(sp)
    800201c8:	2a7d                	addw	s4,s4,31
    800201ca:	06e9eeeb          	.insn	4, 0x06e9eeeb
    800201ce:	8d52                	mv	s10,s4

00000000800201d0 <d_1_27>:
    800201d0:	c5c6                	sw	a7,200(sp)
    800201d2:	0954                	add	a3,sp,148
    800201d4:	acdc                	fsd	fa5,152(s1)
    800201d6:	71be                	ld	gp,488(sp)
    800201d8:	703e                	.insn	2, 0x703e
    800201da:	f1b82167          	.insn	4, 0xf1b82167
    800201de:	9f1f 97fc dcb9      	.insn	6, 0xdcb997fc9f1f
    800201e4:	4418                	lw	a4,8(s0)
    800201e6:	af29                	j	80020900 <_end_data1+0x700>
    800201e8:	5835a50b          	.insn	4, 0x5835a50b
    800201ec:	967babaf          	.insn	4, 0x967babaf
    800201f0:	d9c0                	sw	s0,52(a1)
    800201f2:	50bd                	li	ra,-17
    800201f4:	8439                	sra	s0,s0,0xe
    800201f6:	33f5                	addw	t2,t2,-3 # ffffffff8bc1bffd <_end+0xffffffff0bbbbdfd>
    800201f8:	aed1                	j	800205cc <_end_data1+0x3cc>
    800201fa:	5388                	lw	a0,32(a5)
    800201fc:	8ac0                	.insn	2, 0x8ac0
    800201fe:	Address 0x800201fe is out of bounds.


Disassembly of section .data.random2:

0000000080030000 <_random_data2>:
    80030000:	91d4                	.insn	2, 0x91d4
    80030002:	fc20                	sd	s0,120(s0)
    80030004:	ee7107eb          	.insn	4, 0xee7107eb
    80030008:	9f84                	.insn	2, 0x9f84
    8003000a:	9359                	srl	a4,a4,0x36
    8003000c:	b7c5                	j	8002ffec <_end_data1+0xfdec>
    8003000e:	7067b5ef          	jal	a1,800ab714 <_end+0x4b514>
    80030012:	e61f 3e41 18bf      	.insn	6, 0x18bf3e41e61f
    80030018:	d442                	sw	a6,40(sp)
    8003001a:	c044                	sw	s1,4(s0)
    8003001c:	5641                	li	a2,-16
    8003001e:	          	or	t1,t5,-1497

0000000080030020 <d_2_0>:
    80030020:	a27f 44b9 e73e 70fb 	.insn	14, 0x0effb9e282f070fbe73e44b9a27f
    80030028:	82f0 b9e2 0eff 
    8003002e:	d87c                	sw	a5,116(s0)

0000000080030030 <d_2_1>:
    80030030:	cf81                	beqz	a5,80030048 <d_2_2+0x8>
    80030032:	ee1c                	sd	a5,24(a2)
    80030034:	e818bd7f b860e0db 	.insn	16, 0xd752c59154af3defb860e0dbe818bd7f
    8003003c:	54af3def  

0000000080030040 <d_2_2>:
    80030040:	c591                	beqz	a1,8003004c <d_2_2+0xc>
    80030042:	d752                	sw	s4,172(sp)
    80030044:	b4efd8ef          	jal	a7,8002d392 <_end_data1+0xd192>
    80030048:	4560                	lw	s0,76(a0)
    8003004a:	831635ff  	.insn	16, 0xdfea55d1e22a7ccfa22a0c27831635ff
    80030052:	  

0000000080030050 <d_2_3>:
    80030050:	a22a                	fsd	fa0,256(sp)
    80030052:	e22a7ccf          	fnmadd.d	fs9,fs4,ft2,ft8
    80030056:	55d1                	li	a1,-12
    80030058:	dfea                	sw	s10,252(sp)
    8003005a:	1558d303          	lhu	t1,341(a7)
    8003005e:	          	.insn	4, 0x2cfe69fb

0000000080030060 <d_2_4>:
    80030060:	2cfe                	fld	fs9,472(sp)
    80030062:	2359                	addw	t1,t1,22
    80030064:	843e                	mv	s0,a5
    80030066:	3d15                	addw	s10,s10,-27
    80030068:	204c                	fld	fa1,128(s0)
    8003006a:	700e                	.insn	2, 0x700e
    8003006c:	9025                	srl	s0,s0,0x29
    8003006e:	e732                	sd	a2,392(sp)

0000000080030070 <d_2_5>:
    80030070:	6646                	ld	a2,80(sp)
    80030072:	d330                	sw	a2,96(a4)
    80030074:	c1d4                	sw	a3,4(a1)
    80030076:	3d9a                	fld	fs11,416(sp)
    80030078:	6b79                	lui	s6,0x1e
    8003007a:	23189c4f          	fnmadd.d	fs8,fa7,fa7,ft4,rtz
    8003007e:	7de2                	ld	s11,56(sp)

0000000080030080 <d_2_6>:
    80030080:	c0fe                	sw	t6,64(sp)
    80030082:	40b5                	li	ra,13
    80030084:	ff78                	sd	a4,248(a4)
    80030086:	6133ff47          	fmsub.s	ft10,ft7,fs3,fa2
    8003008a:	20179283          	lh	t0,513(a5) # fffffffffffe2201 <_end+0xffffffff7ff82001>
    8003008e:	be2e                	fsd	fa1,312(sp)

0000000080030090 <d_2_7>:
    80030090:	2f72952b          	.insn	4, 0x2f72952b
    80030094:	ed18                	sd	a4,24(a0)
    80030096:	0ad5                	add	s5,s5,21 # 120ed195 <_start-0x6df12e6b>
    80030098:	8616                	mv	a2,t0
    8003009a:	03ba                	sll	t2,t2,0xe
    8003009c:	324d                	addw	tp,tp,-13 # fffffffffffffff3 <_end+0xffffffff7ff9fdf3>
    8003009e:	          	.insn	4, 0x4be8d207

00000000800300a0 <d_2_8>:
    800300a0:	4be8                	lw	a0,84(a5)
    800300a2:	1b26                	sll	s6,s6,0x29
    800300a4:	6229                	lui	tp,0xa
    800300a6:	0df5e003          	lwu	zero,223(a1) # fffffffffffe10df <_end+0xffffffff7ff80edf>
    800300aa:	2b6d                	addw	s6,s6,27 # 1e01b <_start-0x7ffe1fe5>
    800300ac:	9001                	srl	s0,s0,0x20
    800300ae:	d200                	sw	s0,32(a2)

00000000800300b0 <d_2_9>:
    800300b0:	61b5f513          	and	a0,a1,1563
    800300b4:	338e                	fld	ft7,224(sp)
    800300b6:	8356                	mv	t1,s5
    800300b8:	fb1e                	sd	t2,432(sp)
    800300ba:	fbf9                	bnez	a5,80030090 <d_2_7>
    800300bc:	84d7d343          	.insn	4, 0x84d7d343

00000000800300c0 <d_2_10>:
    800300c0:	8e547263          	bgeu	s0,t0,8002f1a4 <_end_data1+0xefa4>
    800300c4:	bc70                	fsd	fa2,248(s0)
    800300c6:	231f 6ab3 f86a      	.insn	6, 0xf86a6ab3231f
    800300cc:	f8fe                	sd	t6,112(sp)
    800300ce:	d0f1                	beqz	s1,80030092 <d_2_7+0x2>

00000000800300d0 <d_2_11>:
    800300d0:	d239                	beqz	a2,80030016 <_random_data2+0x16>
    800300d2:	b4ce                	fsd	fs3,104(sp)
    800300d4:	0bcee8fb          	.insn	4, 0x0bcee8fb
    800300d8:	c389                	beqz	a5,800300da <d_2_11+0xa>
    800300da:	9ba0                	.insn	2, 0x9ba0
    800300dc:	37df2c23          	sw	t4,888(t5)

00000000800300e0 <d_2_12>:
    800300e0:	55c6                	lw	a1,112(sp)
    800300e2:	14810637          	lui	a2,0x14810
    800300e6:	498d                	li	s3,3
    800300e8:	79e2                	ld	s3,56(sp)
    800300ea:	993c                	.insn	2, 0x993c
    800300ec:	605a                	.insn	2, 0x605a
    800300ee:	0b31                	add	s6,s6,12

00000000800300f0 <d_2_13>:
    800300f0:	aad2                	fsd	fs4,336(sp)
    800300f2:	1c8d                	add	s9,s9,-29
    800300f4:	b02d                	j	8002f91e <_end_data1+0xf71e>
    800300f6:	24a6                	fld	fs1,72(sp)
    800300f8:	0af4                	add	a3,sp,348
    800300fa:	bdb3c81b          	.insn	4, 0xbdb3c81b
    800300fe:	a845                	j	800301ae <d_2_24+0xe>

0000000080030100 <d_2_14>:
    80030100:	f125                	bnez	a0,80030060 <d_2_4>
    80030102:	cfd7ace7          	.insn	4, 0xcfd7ace7
    80030106:	ca3d                	beqz	a2,8003017c <d_2_21+0xc>
    80030108:	4b42                	lw	s6,16(sp)
    8003010a:	1ef27573          	csrrc	a0,0x1ef,4
    8003010e:	2942                	fld	fs2,16(sp)

0000000080030110 <d_2_15>:
    80030110:	442c                	lw	a1,72(s0)
    80030112:	510d                	li	sp,-29
    80030114:	0850                	add	a2,sp,20
    80030116:	2fa2                	fld	ft11,8(sp)
    80030118:	5cb1                	li	s9,-20
    8003011a:	f8e0                	sd	s0,240(s1)
    8003011c:	665e                	ld	a2,464(sp)
    8003011e:	e2ca                	sd	s2,320(sp)

0000000080030120 <d_2_16>:
    80030120:	4e20                	lw	s0,88(a2)
    80030122:	595c9627          	.insn	4, 0x595c9627
    80030126:	1ea4                	add	s1,sp,888
    80030128:	f805                	bnez	s0,80030058 <d_2_3+0x8>
    8003012a:	7a7073c7          	fmsub.d	ft7,ft0,ft7,fa5
    8003012e:	fc1d                	bnez	s0,8003006c <d_2_4+0xc>

0000000080030130 <d_2_17>:
    80030130:	55e6                	lw	a1,120(sp)
    80030132:	37ad                	addw	a5,a5,-21
    80030134:	c9b9                	beqz	a1,8003018a <d_2_22+0xa>
    80030136:	0a8d                	add	s5,s5,3
    80030138:	99d2                	add	s3,s3,s4
    8003013a:	b398                	fsd	fa4,32(a5)
    8003013c:	d41a                	sw	t1,40(sp)
    8003013e:	4060                	lw	s0,68(s0)

0000000080030140 <d_2_18>:
    80030140:	4485                	li	s1,1
    80030142:	85be                	mv	a1,a5
    80030144:	9811                	and	s0,s0,-28
    80030146:	9da6                	add	s11,s11,s1
    80030148:	8f61                	and	a4,a4,s0
    8003014a:	c376                	sw	t4,132(sp)
    8003014c:	9e8a                	add	t4,t4,sp
    8003014e:	fbd2                	sd	s4,496(sp)

0000000080030150 <d_2_19>:
    80030150:	aacc                	fsd	fa1,144(a3)
    80030152:	7c1a                	ld	s8,416(sp)
    80030154:	29a2                	fld	fs3,8(sp)
    80030156:	4b17df1b          	.insn	4, 0x4b17df1b
    8003015a:	90aa                	add	ra,ra,a0
    8003015c:	5206                	lw	tp,96(sp)
    8003015e:	1bc8                	add	a0,sp,500

0000000080030160 <d_2_20>:
    80030160:	f9c8                	sd	a0,176(a1)
    80030162:	f235                	bnez	a2,800300c6 <d_2_10+0x6>
    80030164:	e82c                	sd	a1,80(s0)
    80030166:	2b49                	addw	s6,s6,18
    80030168:	e32372eb          	.insn	4, 0xe32372eb
    8003016c:	f145                	bnez	a0,8003010c <d_2_14+0xc>
    8003016e:	ae25                	j	800304a6 <_end_data2+0x2a6>

0000000080030170 <d_2_21>:
    80030170:	98c4b537          	lui	a0,0x98c4b
    80030174:	7010782b          	.insn	4, 0x7010782b
    80030178:	061a                	sll	a2,a2,0x6
    8003017a:	60f9                	lui	ra,0x1e
    8003017c:	5ffe                	lw	t6,252(sp)
    8003017e:	dd70                	sw	a2,124(a0)

0000000080030180 <d_2_22>:
    80030180:	3e64                	fld	fs1,248(a2)
    80030182:	5176                	lw	sp,124(sp)
    80030184:	5f30                	lw	a2,120(a4)
    80030186:	8bbe                	mv	s7,a5
    80030188:	19be7df3          	csrrc	s11,0x19b,28
    8003018c:	190ff6fb          	.insn	4, 0x190ff6fb

0000000080030190 <d_2_23>:
    80030190:	4bb1                	li	s7,12
    80030192:	e988                	sd	a0,16(a1)
    80030194:	f293e657          	.insn	4, 0xf293e657
    80030198:	d031                	beqz	s0,800300dc <d_2_11+0xc>
    8003019a:	3b175113          	.insn	4, 0x3b175113
    8003019e:	21e1                	addw	gp,gp,24 # 3018 <_start-0x7fffcfe8>

00000000800301a0 <d_2_24>:
    800301a0:	6645                	lui	a2,0x11
    800301a2:	0c16                	sll	s8,s8,0x5
    800301a4:	0086a0a7          	fsw	fs0,1(a3) # fffffffffffef001 <_end+0xffffffff7ff8ee01>
    800301a8:	556979ef          	jal	s3,800c76fe <_end+0x674fe>
    800301ac:	47fa                	lw	a5,156(sp)
    800301ae:	d110                	sw	a2,32(a0)

00000000800301b0 <d_2_25>:
    800301b0:	291f 5151 bca3      	.insn	6, 0xbca35151291f
    800301b6:	07a6                	sll	a5,a5,0x9
    800301b8:	0df8                	add	a4,sp,732
    800301ba:	9db0                	.insn	2, 0x9db0
    800301bc:	e345                	bnez	a4,8003025c <_end_data2+0x5c>
    800301be:	c452                	sw	s4,8(sp)

00000000800301c0 <d_2_26>:
    800301c0:	767f                	.insn	2, 0x767f
    800301c2:	b0e1                	j	8002fa8a <_end_data1+0xf88a>
    800301c4:	3c84                	fld	fs1,56(s1)
    800301c6:	ff17f767          	.insn	4, 0xff17f767
    800301ca:	1261                	add	tp,tp,-8 # 9ff8 <_start-0x7fff6008>
    800301cc:	a8e6                	fsd	fs9,80(sp)
    800301ce:	f405                	bnez	s0,800300f6 <d_2_13+0x6>

00000000800301d0 <d_2_27>:
    800301d0:	5892                	lw	a7,36(sp)
    800301d2:	363a1d6b          	.insn	4, 0x363a1d6b
    800301d6:	8cad                	xor	s1,s1,a1
    800301d8:	2afc6f63          	bltu	s8,a5,80030496 <_end_data2+0x296>
    800301dc:	5ed4                	lw	a3,60(a3)
    800301de:	1364                	add	s1,sp,428
    800301e0:	d658c2e3          	blt	a7,t0,8002ff44 <_end_data1+0xfd44>
    800301e4:	687f e223 db40 7fba 	.insn	22, 0x049c6a025a54347b562ac27b61417fbadb40e223687f
    800301ec:	6141 c27b 562a 347b 
    800301f4:	5a54 6a02 049c 
    800301fa:	4d894633          	.insn	4, 0x4d894633
    800301fe:	8a04                	.insn	2, 0x8a04

Disassembly of section .data.random3:

0000000080040000 <_random_data3>:
    80040000:	2d84                	fld	fs1,24(a1)
    80040002:	ff96                	sd	t0,504(sp)
    80040004:	83ce                	mv	t2,s3
    80040006:	3b0c                	fld	fa1,48(a4)
    80040008:	4e89                	li	t4,2
    8004000a:	f3308817          	auipc	a6,0xf3308
    8004000e:	d087c16f          	jal	sp,7ffbc516 <_start-0x43aea>
    80040012:	6252                	ld	tp,272(sp)
    80040014:	aab1c14b          	fnmsub.d	ft2,ft3,fa1,fs5,rmm
    80040018:	becd                	j	8003fc0a <_end_data2+0xfa0a>
    8004001a:	ab75                	j	800405d6 <_end_data3+0x3d6>
    8004001c:	1159                	add	sp,sp,-10
    8004001e:	76d1                	lui	a3,0xffff4

0000000080040020 <d_3_0>:
    80040020:	9140                	.insn	2, 0x9140
    80040022:	9894                	.insn	2, 0x9894
    80040024:	0910                	add	a2,sp,144
    80040026:	5bed0367          	jalr	t1,1470(s10)
    8004002a:	1146                	sll	sp,sp,0x31
    8004002c:	ba4d                	j	8003f9de <_end_data2+0xf7de>
    8004002e:	5881                	li	a7,-32

0000000080040030 <d_3_1>:
    80040030:	b4e04b7b          	.insn	4, 0xb4e04b7b
    80040034:	2e1c                	fld	fa5,24(a2)
    80040036:	66d9                	lui	a3,0x16
    80040038:	8c99                	sub	s1,s1,a4
    8004003a:	fec0                	sd	s0,184(a3)
    8004003c:	8aba                	mv	s5,a4
    8004003e:	b21d                	j	8003f964 <_end_data2+0xf764>

0000000080040040 <d_3_2>:
    80040040:	ff3a                	sd	a4,440(sp)
    80040042:	f579                	bnez	a0,80040010 <_random_data3+0x10>
    80040044:	19c1                	add	s3,s3,-16
    80040046:	590d                	li	s2,-29
    80040048:	f99a                	sd	t1,240(sp)
    8004004a:	6bc5                	lui	s7,0x11
    8004004c:	b9dd                	j	8003fd42 <_end_data2+0xfb42>
    8004004e:	9fc1                	.insn	2, 0x9fc1

0000000080040050 <d_3_3>:
    80040050:	7400                	ld	s0,40(s0)
    80040052:	aa0f57d7          	.insn	4, 0xaa0f57d7
    80040056:	0be6                	sll	s7,s7,0x19
    80040058:	49f9                	li	s3,30
    8004005a:	f4b6b98f          	.insn	4, 0xf4b6b98f
    8004005e:	          	or	s7,gp,781

0000000080040060 <d_3_4>:
    80040060:	30d1                	addw	ra,ra,-12 # 1dff4 <_start-0x7ffe200c>
    80040062:	6f6e                	ld	t5,216(sp)
    80040064:	6ecc                	ld	a1,152(a3)
    80040066:	bbeb30af          	.insn	4, 0xbbeb30af
    8004006a:	d0ac                	sw	a1,96(s1)
    8004006c:	b556                	fsd	fs5,168(sp)
    8004006e:	ed20                	sd	s0,88(a0)

0000000080040070 <d_3_5>:
    80040070:	075e                	sll	a4,a4,0x17
    80040072:	277f70a7          	.insn	4, 0x277f70a7
    80040076:	a994                	fsd	fa3,16(a1)
    80040078:	b39fa10f          	.insn	4, 0xb39fa10f
    8004007c:	cc1e                	sw	t2,24(sp)
    8004007e:	0b1a                	sll	s6,s6,0x6

0000000080040080 <d_3_6>:
    80040080:	7d36                	ld	s10,360(sp)
    80040082:	d4a0fc4b          	.insn	4, 0xd4a0fc4b
    80040086:	b7bcfe07          	.insn	4, 0xb7bcfe07
    8004008a:	b7ba                	fsd	fa4,488(sp)
    8004008c:	72c9c4cb          	fnmsub.d	fs1,fs3,fa2,fa4,rmm

0000000080040090 <d_3_7>:
    80040090:	bcbc                	fsd	fa5,120(s1)
    80040092:	8a3c                	.insn	2, 0x8a3c
    80040094:	2e2a                	fld	ft8,136(sp)
    80040096:	0e7f 3007 a2a3 907a 	.insn	10, 0xba6c907aa2a330070e7f
    8004009e:	ba6c 

00000000800400a0 <d_3_8>:
    800400a0:	6738                	ld	a4,72(a4)
    800400a2:	32c2b2f3          	csrrc	t0,mhpmevent12,t0
    800400a6:	2fb4                	fld	fa3,88(a5)
    800400a8:	7e6c55fb          	.insn	4, 0x7e6c55fb
    800400ac:	77de                	ld	a5,496(sp)
    800400ae:	d452                	sw	s4,40(sp)

00000000800400b0 <d_3_9>:
    800400b0:	470c                	lw	a1,8(a4)
    800400b2:	97f4                	.insn	2, 0x97f4
    800400b4:	cde2                	sw	s8,216(sp)
    800400b6:	4359                	li	t1,22
    800400b8:	5add                	li	s5,-9
    800400ba:	0694                	add	a3,sp,832
    800400bc:	6d12                	ld	s10,256(sp)
    800400be:	05b1                	add	a1,a1,12

00000000800400c0 <d_3_10>:
    800400c0:	788c                	ld	a1,48(s1)
    800400c2:	9fa2                	add	t6,t6,s0
    800400c4:	59f5                	li	s3,-3
    800400c6:	841e                	mv	s0,t2
    800400c8:	d635                	beqz	a2,80040034 <d_3_1+0x4>
    800400ca:	707c                	ld	a5,224(s0)
    800400cc:	6b05a193          	slti	gp,a1,1712

00000000800400d0 <d_3_11>:
    800400d0:	ce0c                	sw	a1,24(a2)
    800400d2:	e3d0b95b          	.insn	4, 0xe3d0b95b
    800400d6:	4bd6                	lw	s7,84(sp)
    800400d8:	8b51b377          	.insn	4, 0x8b51b377
    800400dc:	a87f8497          	auipc	s1,0xa87f8

00000000800400e0 <d_3_12>:
    800400e0:	d1b39fdb          	.insn	4, 0xd1b39fdb
    800400e4:	7614                	ld	a3,40(a2)
    800400e6:	7421ab63          	.insn	4, 0x7421ab63
    800400ea:	6530                	ld	a2,72(a0)
    800400ec:	c3d815f7          	.insn	4, 0xc3d815f7

00000000800400f0 <d_3_13>:
    800400f0:	46f7c167          	.insn	4, 0x46f7c167
    800400f4:	8d58                	.insn	2, 0x8d58
    800400f6:	93df 4988 6f86      	.insn	6, 0x6f86498893df
    800400fc:	b4a0                	fsd	fs0,104(s1)
    800400fe:	          	.insn	4, 0x8c9e563b

0000000080040100 <d_3_14>:
    80040100:	8c9e                	mv	s9,t2
    80040102:	309cc107          	.insn	4, 0x309cc107
    80040106:	0555                	add	a0,a0,21 # ffffffff98c4b015 <_end+0xffffffff18beae15>
    80040108:	935e                	add	t1,t1,s7
    8004010a:	fcfe                	sd	t6,120(sp)
    8004010c:	be70                	fsd	fa2,248(a2)
    8004010e:	af46                	fsd	fa7,408(sp)

0000000080040110 <d_3_15>:
    80040110:	5cc32513          	slti	a0,t1,1484
    80040114:	2d92                	fld	fs11,256(sp)
    80040116:	b261                	j	8003fa9e <_end_data2+0xf89e>
    80040118:	09df 0da7 18de      	.insn	6, 0x18de0da709df
    8004011e:	ecb4                	sd	a3,88(s1)

0000000080040120 <d_3_16>:
    80040120:	a45a                	fsd	fs6,8(sp)
    80040122:	5d18                	lw	a4,56(a0)
    80040124:	e47b6fa3          	.insn	4, 0xe47b6fa3
    80040128:	f9baa877          	.insn	4, 0xf9baa877
    8004012c:	91611abb          	.insn	4, 0x91611abb

0000000080040130 <d_3_17>:
    80040130:	bc9d                	j	8003fba6 <_end_data2+0xf9a6>
    80040132:	ec5cb18b          	.insn	4, 0xec5cb18b
    80040136:	db4f179b          	.insn	4, 0xdb4f179b
    8004013a:	a8b1fecb          	fnmsub.s	ft9,ft3,fa1,fs5
    8004013e:	7cdf        	.insn	6, 0x5b151d357cdf

0000000080040140 <d_3_18>:
    80040140:	1d35                	add	s10,s10,-19
    80040142:	5b15                	li	s6,-27
    80040144:	c836                	sw	a3,16(sp)
    80040146:	1395                	add	t2,t2,-27
    80040148:	35c1                	addw	a1,a1,-16
    8004014a:	8e96                	mv	t4,t0
    8004014c:	4832                	lw	a6,12(sp)
    8004014e:	eb9c                	sd	a5,16(a5)

0000000080040150 <d_3_19>:
    80040150:	a7b6                	fsd	fa3,456(sp)
    80040152:	f936                	sd	a3,176(sp)
    80040154:	d58e                	sw	gp,232(sp)
    80040156:	e489                	bnez	s1,80040160 <d_3_20>
    80040158:	d6d8                	sw	a4,44(a3)
    8004015a:	1b21                	add	s6,s6,-24
    8004015c:	b565                	j	80040004 <_random_data3+0x4>
    8004015e:	ed6e                	sd	s11,152(sp)

0000000080040160 <d_3_20>:
    80040160:	6b18                	ld	a4,16(a4)
    80040162:	704a                	.insn	2, 0x704a
    80040164:	f8b3957f d2fd93e1 	.insn	12, 0x168c7234d2fd93e1f8b3957f
    8004016c:	168c7234 

0000000080040170 <d_3_21>:
    80040170:	130c0987          	.insn	4, 0x130c0987
    80040174:	bc09                	j	8003fb86 <_end_data2+0xf986>
    80040176:	3a44                	fld	fs1,176(a2)
    80040178:	0c49                	add	s8,s8,18
    8004017a:	1a06763b          	.insn	4, 0x1a06763b
    8004017e:	b8ee                	fsd	fs11,112(sp)

0000000080040180 <d_3_22>:
    80040180:	8ad84453          	.insn	4, 0x8ad84453
    80040184:	8bf41ee3          	bne	s0,t6,8003fa40 <_end_data2+0xf840>
    80040188:	9fa4                	.insn	2, 0x9fa4
    8004018a:	bf0e                	fsd	ft3,440(sp)
    8004018c:	69d5                	lui	s3,0x15
    8004018e:	  	.insn	8, 0x8eaa92d18b4c2cbf

0000000080040190 <d_3_23>:
    80040190:	8b4c                	.insn	2, 0x8b4c
    80040192:	92d1                	srl	a3,a3,0x34
    80040194:	8eaa                	mv	t4,a0
    80040196:	c0c2                	sw	a6,64(sp)
    80040198:	88d2                	mv	a7,s4
    8004019a:	aa85cf23          	.insn	4, 0xaa85cf23
    8004019e:	c274                	sw	a3,68(a2)

00000000800401a0 <d_3_24>:
    800401a0:	a8ba                	fsd	fa4,80(sp)
    800401a2:	ac1a8253          	.insn	4, 0xac1a8253
    800401a6:	5a2a                	lw	s4,168(sp)
    800401a8:	2148                	fld	fa0,128(a0)
    800401aa:	55d2                	lw	a1,52(sp)
    800401ac:	f510                	sd	a2,40(a0)
    800401ae:	9c04                	.insn	2, 0x9c04

00000000800401b0 <d_3_25>:
    800401b0:	28d4                	fld	fa3,144(s1)
    800401b2:	ad064be3          	blt	a2,a6,8003fc88 <_end_data2+0xfa88>
    800401b6:	4d01                	li	s10,0
    800401b8:	02d9512f          	.insn	4, 0x02d9512f
    800401bc:	9b76                	add	s6,s6,t4
    800401be:	dcd5                	beqz	s1,8004017a <d_3_21+0xa>

00000000800401c0 <d_3_26>:
    800401c0:	d384                	sw	s1,32(a5)
    800401c2:	ff9afe57          	.insn	4, 0xff9afe57
    800401c6:	7238e58f          	.insn	4, 0x7238e58f
    800401ca:	df1a                	sw	t1,188(sp)
    800401cc:	2b8fca07          	.insn	4, 0x2b8fca07

00000000800401d0 <d_3_27>:
    800401d0:	f17c                	sd	a5,224(a0)
    800401d2:	a79e                	fsd	ft7,456(sp)
    800401d4:	19bf64eb          	.insn	4, 0x19bf64eb
    800401d8:	34e2                	fld	fs1,56(sp)
    800401da:	d962                	sw	s8,176(sp)
    800401dc:	b6fd                	j	8003fdca <_end_data2+0xfbca>
    800401de:	385c                	fld	fa5,176(s0)
    800401e0:	6ea3208f          	.insn	4, 0x6ea3208f
    800401e4:	7d8b0433          	.insn	4, 0x7d8b0433
    800401e8:	f3d2                	sd	s4,480(sp)
    800401ea:	7d06                	ld	s10,96(sp)
    800401ec:	37d8                	fld	fa4,168(a5)
    800401ee:	b766                	fsd	fs9,424(sp)
    800401f0:	d1f6                	sw	t4,224(sp)
    800401f2:	fa48                	sd	a0,176(a2)
    800401f4:	0ed9                	add	t4,t4,22
    800401f6:	6870                	ld	a2,208(s0)
    800401f8:	Address 0x800401f8 is out of bounds.


Disassembly of section .data.random4:

0000000080050000 <_random_data4>:
    80050000:	ce89                	beqz	a3,8005001a <_random_data4+0x1a>
    80050002:	398a                	fld	fs3,160(sp)
    80050004:	9a04064b          	fnmsub.d	fa2,fs0,ft0,fs3,rne
    80050008:	1bb8                	add	a4,sp,504
    8005000a:	87465703          	lhu	a4,-1932(a2) # 10874 <_start-0x7ffef78c>
    8005000e:	bad5                	j	8004fa02 <_end_data3+0xf802>
    80050010:	732bab2f          	.insn	4, 0x732bab2f
    80050014:	d70d4d1b          	.insn	4, 0xd70d4d1b
    80050018:	768a                	ld	a3,160(sp)
    8005001a:	5b81                	li	s7,-32
    8005001c:	bc775c23          	.insn	4, 0xbc775c23

0000000080050020 <d_4_0>:
    80050020:	fb1f89b7          	lui	s3,0xfb1f8
    80050024:	2458ac63          	.insn	4, 0x2458ac63
    80050028:	e8a8                	sd	a0,80(s1)
    8005002a:	a82d                	j	80050064 <d_4_4+0x4>
    8005002c:	82f19a9b          	.insn	4, 0x82f19a9b

0000000080050030 <d_4_1>:
    80050030:	686914d3          	.insn	4, 0x686914d3
    80050034:	52be3917          	auipc	s2,0x52be3
    80050038:	16e4                	add	s1,sp,876
    8005003a:	d951                	beqz	a0,8004ffce <_end_data3+0xfdce>
    8005003c:	43a1                	li	t2,8
    8005003e:	7910                	ld	a2,48(a0)

0000000080050040 <d_4_2>:
    80050040:	9341                	srl	a4,a4,0x30
    80050042:	4d3df90b          	.insn	4, 0x4d3df90b
    80050046:	6efc                	ld	a5,216(a3)
    80050048:	e97e                	sd	t6,144(sp)
    8005004a:	81788cbb          	.insn	4, 0x81788cbb
    8005004e:	          	.insn	4, 0xf94d6507

0000000080050050 <d_4_3>:
    80050050:	f94d                	bnez	a0,80050002 <_random_data4+0x2>
    80050052:	6f0cf143          	.insn	4, 0x6f0cf143
    80050056:	99c8                	.insn	2, 0x99c8
    80050058:	b340                	fsd	fs0,160(a4)
    8005005a:	e1b10933          	.insn	4, 0xe1b10933
    8005005e:	f93c                	sd	a5,112(a0)

0000000080050060 <d_4_4>:
    80050060:	ea28092f          	.insn	4, 0xea28092f
    80050064:	d46cc393          	xor	t2,s9,-698
    80050068:	cc1d07eb          	.insn	4, 0xcc1d07eb
    8005006c:	d652                	sw	s4,44(sp)
    8005006e:	8374                	.insn	2, 0x8374

0000000080050070 <d_4_5>:
    80050070:	ab858f03          	lb	t5,-1352(a1)
    80050074:	0e68                	add	a0,sp,796
    80050076:	635e                	ld	t1,464(sp)
    80050078:	9a5c                	.insn	2, 0x9a5c
    8005007a:	c024                	sw	s1,64(s0)
    8005007c:	d8ee                	sw	s11,112(sp)
    8005007e:	94b1                	sra	s1,s1,0x2c

0000000080050080 <d_4_6>:
    80050080:	efb0                	sd	a2,88(a5)
    80050082:	8786                	mv	a5,ra
    80050084:	afcd80a7          	.insn	4, 0xafcd80a7
    80050088:	a871                	j	80050124 <d_4_16+0x4>
    8005008a:	bf6c                	fsd	fa1,248(a4)
    8005008c:	1472                	sll	s0,s0,0x3c
    8005008e:	52fe                	lw	t0,252(sp)

0000000080050090 <d_4_7>:
    80050090:	b3205fb3          	.insn	4, 0xb3205fb3
    80050094:	f36e                	sd	s11,416(sp)
    80050096:	b4c6430f          	.insn	4, 0xb4c6430f
    8005009a:	4479                	li	s0,30
    8005009c:	74b1                	lui	s1,0xfffec
    8005009e:	          	sh	s9,1843(a6) # 7334873d <_start-0xccb78c3>

00000000800500a0 <d_4_8>:
    800500a0:	7398                	ld	a4,32(a5)
    800500a2:	27dd                	addw	a5,a5,23
    800500a4:	b5e2                	fsd	fs8,232(sp)
    800500a6:	5f18                	lw	a4,56(a4)
    800500a8:	2252                	fld	ft4,272(sp)
    800500aa:	6750                	ld	a2,136(a4)
    800500ac:	cc0d                	beqz	s0,800500e6 <d_4_12+0x6>
    800500ae:	f8c8                	sd	a0,176(s1)

00000000800500b0 <d_4_9>:
    800500b0:	be35                	j	8004fbec <_end_data3+0xf9ec>
    800500b2:	02861057          	.insn	4, 0x02861057
    800500b6:	d0fd                	beqz	s1,8005009c <d_4_7+0xc>
    800500b8:	162b8c97          	auipc	s9,0x162b8
    800500bc:	69f4                	ld	a3,208(a1)
    800500be:	          	.insn	4, 0xedbfb3cf

00000000800500c0 <d_4_10>:
    800500c0:	7250edbf 5580a207 	.insn	8, 0x5580a2077250edbf
    800500c8:	6d79                	lui	s10,0x1e
    800500ca:	e2cc                	sd	a1,128(a3)
    800500cc:	9054                	.insn	2, 0x9054
    800500ce:	b41d                	j	8004faf4 <_end_data3+0xf8f4>

00000000800500d0 <d_4_11>:
    800500d0:	8806                	mv	a6,ra
    800500d2:	24d6                	fld	fs1,336(sp)
    800500d4:	e82d                	bnez	s0,80050146 <d_4_18+0x6>
    800500d6:	b4f2                	fsd	ft8,104(sp)
    800500d8:	bdd1                	j	8004ffac <_end_data3+0xfdac>
    800500da:	1669                	add	a2,a2,-6
    800500dc:	959d                	sra	a1,a1,0x27
    800500de:	0129                	add	sp,sp,10

00000000800500e0 <d_4_12>:
    800500e0:	7d32                	ld	s10,296(sp)
    800500e2:	ff60                	sd	s0,248(a4)
    800500e4:	d8168acf          	fnmadd.s	fs5,fa3,ft1,fs11,rne
    800500e8:	8780                	.insn	2, 0x8780
    800500ea:	2814                	fld	fa3,16(s0)
    800500ec:	05af83e3          	beq	t6,s10,80050932 <_end_data4+0x732>

00000000800500f0 <d_4_13>:
    800500f0:	a253ffab          	.insn	4, 0xa253ffab
    800500f4:	33de                	fld	ft7,496(sp)
    800500f6:	260d                	addw	a2,a2,3
    800500f8:	27a6                	fld	fa5,72(sp)
    800500fa:	fc08                	sd	a0,56(s0)
    800500fc:	f705                	bnez	a4,80050024 <d_4_0+0x4>
    800500fe:	9085                	srl	s1,s1,0x21

0000000080050100 <d_4_14>:
    80050100:	fad32493          	slti	s1,t1,-83
    80050104:	74c8                	ld	a0,168(s1)
    80050106:	ef16                	sd	t0,408(sp)
    80050108:	dffd                	beqz	a5,80050106 <d_4_14+0x6>
    8005010a:	699639ef          	jal	s3,800b3fa2 <_end+0x53da2>
    8005010e:	e60d                	bnez	a2,80050138 <d_4_17+0x8>

0000000080050110 <d_4_15>:
    80050110:	e6e8                	sd	a0,200(a3)
    80050112:	6602                	ld	a2,0(sp)
    80050114:	ee163173          	csrrc	sp,0xee1,a2
    80050118:	32c409ab          	.insn	4, 0x32c409ab
    8005011c:	d359                	beqz	a4,800500a2 <d_4_8+0x2>
    8005011e:	          	fld	ft3,-638(a7)

0000000080050120 <d_4_16>:
    80050120:	d828                	sw	a0,112(s0)
    80050122:	bd0d                	j	8004ff54 <_end_data3+0xfd54>
    80050124:	1521                	add	a0,a0,-24
    80050126:	a5bb2ad7          	.insn	4, 0xa5bb2ad7
    8005012a:	059fa02f          	amoadd.w.aq	zero,s9,(t6)
    8005012e:	bc6d                	j	8004fbe8 <_end_data3+0xf9e8>

0000000080050130 <d_4_17>:
    80050130:	8ade42db          	.insn	4, 0x8ade42db
    80050134:	b192                	fsd	ft4,224(sp)
    80050136:	4acc                	lw	a1,20(a3)
    80050138:	18d23e73          	csrrc	t3,0x18d,tp
    8005013c:	e6fa                	sd	t5,328(sp)
    8005013e:	6b1f        	.insn	6, 0x8b19a94b6b1f

0000000080050140 <d_4_18>:
    80050140:	8b19a94b          	fnmsub.d	fs2,fs3,fa7,fa7,rdn
    80050144:	a5a080fb          	.insn	4, 0xa5a080fb
    80050148:	a4b6                	fsd	fa3,72(sp)
    8005014a:	8b09                	and	a4,a4,2
    8005014c:	4fc5                	li	t6,17
    8005014e:	ddb5                	beqz	a1,800500ca <d_4_10+0xa>

0000000080050150 <d_4_19>:
    80050150:	4cba                	lw	s9,140(sp)
    80050152:	e24a                	sd	s2,256(sp)
    80050154:	3ec2                	fld	ft9,48(sp)
    80050156:	7599                	lui	a1,0xfffe6
    80050158:	6c9f baac 02f9      	.insn	6, 0x02f9baac6c9f
    8005015e:	1fce                	sll	t6,t6,0x33

0000000080050160 <d_4_20>:
    80050160:	6e71                	lui	t3,0x1c
    80050162:	c895                	beqz	s1,80050196 <d_4_23+0x6>
    80050164:	fedd                	bnez	a3,80050122 <d_4_16+0x2>
    80050166:	e7fe                	sd	t6,456(sp)
    80050168:	ca0bdb83          	lhu	s7,-864(s7) # 10ca0 <_start-0x7ffef360>
    8005016c:	7d4105bf  	.insn	8, 0x37b216e17d4105bf

0000000080050170 <d_4_21>:
    80050170:	16e1                	add	a3,a3,-8 # 15ff8 <_start-0x7ffea008>
    80050172:	37b2                	fld	fa5,296(sp)
    80050174:	ae05                	j	800504a4 <_end_data4+0x2a4>
    80050176:	e294                	sd	a3,0(a3)
    80050178:	1359                	add	t1,t1,-10
    8005017a:	37fa                	fld	fa5,440(sp)
    8005017c:	e409                	bnez	s0,80050186 <d_4_22+0x6>
    8005017e:	7a3a                	ld	s4,424(sp)

0000000080050180 <d_4_22>:
    80050180:	99b4                	.insn	2, 0x99b4
    80050182:	8e0d                	sub	a2,a2,a1
    80050184:	1a78                	add	a4,sp,316
    80050186:	9e5a26ab          	.insn	4, 0x9e5a26ab
    8005018a:	aa37bce7          	.insn	4, 0xaa37bce7
    8005018e:	          	auipc	s9,0xcf7eb

0000000080050190 <d_4_23>:
    80050190:	cf7e                	sw	t6,156(sp)
    80050192:	3620                	fld	fs0,104(a2)
    80050194:	b348                	fsd	fa0,160(a4)
    80050196:	168a                	sll	a3,a3,0x22
    80050198:	2d3e                	fld	fs10,456(sp)
    8005019a:	4bb1                	li	s7,12
    8005019c:	088e                	sll	a7,a7,0x3
    8005019e:	e482                	sd	zero,72(sp)

00000000800501a0 <d_4_24>:
    800501a0:	cd9a                	sw	t1,216(sp)
    800501a2:	b16c                	fsd	fa1,224(a0)
    800501a4:	8d91                	sub	a1,a1,a2
    800501a6:	842e                	mv	s0,a1
    800501a8:	e09a4f6b          	.insn	4, 0xe09a4f6b
    800501ac:	8b9d                	and	a5,a5,7
    800501ae:	05f6                	sll	a1,a1,0x1d

00000000800501b0 <d_4_25>:
    800501b0:	915f6083          	lwu	ra,-1771(t5)
    800501b4:	2258                	fld	fa4,128(a2)
    800501b6:	6435                	lui	s0,0xd
    800501b8:	08eb294b          	fnmsub.s	fs2,fs6,fa4,ft1,rdn
    800501bc:	85ce                	mv	a1,s3
    800501be:	5160                	lw	s0,100(a0)

00000000800501c0 <d_4_26>:
    800501c0:	5350                	lw	a2,36(a4)
    800501c2:	8047ca6f          	jal	s4,7ffcc1c6 <_start-0x33e3a>
    800501c6:	5059                	c.li	zero,-10
    800501c8:	53a4                	lw	s1,96(a5)
    800501ca:	128e                	sll	t0,t0,0x23
    800501cc:	a534                	fsd	fa3,72(a0)
    800501ce:	2e81                	sext.w	t4,t4

00000000800501d0 <d_4_27>:
    800501d0:	6162                	ld	sp,24(sp)
    800501d2:	7522                	ld	a0,40(sp)
    800501d4:	71e6                	ld	gp,120(sp)
    800501d6:	6b18                	ld	a4,16(a4)
    800501d8:	b24e                	fsd	fs3,288(sp)
    800501da:	ee2c                	sd	a1,88(a2)
    800501dc:	266d                	addw	a2,a2,27
    800501de:	6736                	ld	a4,328(sp)
    800501e0:	3392                	fld	ft7,288(sp)
    800501e2:	057e2e97          	auipc	t4,0x57e2
    800501e6:	fd5f 03ba 15ce      	.insn	6, 0x15ce03bafd5f
    800501ec:	bbb4e317          	auipc	t1,0xbbb4e
    800501f0:	4091                	li	ra,4
    800501f2:	640a980f          	.insn	4, 0x640a980f
    800501f6:	9a4a                	add	s4,s4,s2
    800501f8:	92c8                	.insn	2, 0x92c8
    800501fa:	def9                	beqz	a3,800501d8 <d_4_27+0x8>
    800501fc:	1290                	add	a2,sp,352
    800501fe:	36a2                	fld	fa3,40(sp)

Disassembly of section .data.random5:

0000000080060000 <_random_data5>:
    80060000:	f110                	sd	a2,32(a0)
    80060002:	b708                	fsd	fa0,40(a4)
    80060004:	13a0                	add	s0,sp,488
    80060006:	beed                	j	8005fc00 <_end_data4+0xfa00>
    80060008:	fc4e                	sd	s3,56(sp)
    8006000a:	3a21                	addw	s4,s4,-24
    8006000c:	6979                	lui	s2,0x1e
    8006000e:	7472                	ld	s0,312(sp)
    80060010:	7a06                	ld	s4,96(sp)
    80060012:	0b26                	sll	s6,s6,0x9
    80060014:	95b6                	add	a1,a1,a3
    80060016:	d2023ca7          	fsd	ft0,-711(tp) # fffffffffffffd39 <_end+0xffffffff7ff9fb39>
    8006001a:	2f55                	addw	t5,t5,21
    8006001c:	f3b00bb7          	lui	s7,0xf3b00

0000000080060020 <d_5_0>:
    80060020:	ada9                	j	8006067a <_end+0x47a>
    80060022:	e500                	sd	s0,8(a0)
    80060024:	a5ba                	fsd	fa4,200(sp)
    80060026:	ed35                	bnez	a0,800600a2 <d_5_8+0x2>
    80060028:	5ce6                	lw	s9,120(sp)
    8006002a:	c3ef61ef          	jal	gp,80056468 <_end_data4+0x6268>
    8006002e:	cc9e                	sw	t2,88(sp)

0000000080060030 <d_5_1>:
    80060030:	c1df f497 2d0e      	.insn	6, 0x2d0ef497c1df
    80060036:	43e8                	lw	a0,68(a5)
    80060038:	6aa9                	lui	s5,0xa
    8006003a:	fbba                	sd	a4,496(sp)
    8006003c:	ea91                	bnez	a3,80060050 <d_5_3>
    8006003e:	398d                	addw	s3,s3,-29 # fffffffffb1f7fe3 <_end+0xffffffff7b197de3>

0000000080060040 <d_5_2>:
    80060040:	6aa3d107          	.insn	4, 0x6aa3d107
    80060044:	2198                	fld	fa4,0(a1)
    80060046:	d206                	sw	ra,36(sp)
    80060048:	c0a2f10f          	.insn	4, 0xc0a2f10f
    8006004c:	ba0209a3          	sb	zero,-1101(tp) # fffffffffffffbb3 <_end+0xffffffff7ff9f9b3>

0000000080060050 <d_5_3>:
    80060050:	b13e                	fsd	fa5,160(sp)
    80060052:	a7aa                	fsd	fa0,456(sp)
    80060054:	5c4f7cd7          	.insn	4, 0x5c4f7cd7
    80060058:	9a3be62f          	.insn	4, 0x9a3be62f
    8006005c:	2082                	fld	ft1,0(sp)
    8006005e:	5f00                	lw	s0,56(a4)

0000000080060060 <d_5_4>:
    80060060:	17165c77          	.insn	4, 0x17165c77
    80060064:	5ddb3137          	lui	sp,0x5ddb3
    80060068:	3d919ca7          	.insn	4, 0x3d919ca7
    8006006c:	18c1                	add	a7,a7,-16
    8006006e:	d1da                	sw	s6,224(sp)

0000000080060070 <d_5_5>:
    80060070:	3e3c                	fld	fa5,120(a2)
    80060072:	9d7a                	add	s10,s10,t5
    80060074:	26d6                	fld	fa3,336(sp)
    80060076:	72a9                	lui	t0,0xfffea
    80060078:	0f0c                	add	a1,sp,912
    8006007a:	9d69                	.insn	2, 0x9d69
    8006007c:	4228                	lw	a0,64(a2)
    8006007e:	b620                	fsd	fs0,104(a2)

0000000080060080 <d_5_6>:
    80060080:	adfcb6cb          	.insn	4, 0xadfcb6cb
    80060084:	3855bc07          	fld	fs8,901(a1) # fffffffffffe6385 <_end+0xffffffff7ff86185>
    80060088:	316e                	fld	ft2,248(sp)
    8006008a:	9324                	.insn	2, 0x9324
    8006008c:	d032                	sw	a2,32(sp)
    8006008e:	f0c1                	bnez	s1,8006000e <_random_data5+0xe>

0000000080060090 <d_5_7>:
    80060090:	fc10                	sd	a2,56(s0)
    80060092:	2602                	fld	fa2,0(sp)
    80060094:	8c26                	mv	s8,s1
    80060096:	5ce4                	lw	s1,124(s1)
    80060098:	54fc                	lw	a5,108(s1)
    8006009a:	bff5                	j	80060096 <d_5_7+0x6>
    8006009c:	992c                	.insn	2, 0x992c
    8006009e:	41d4                	lw	a3,4(a1)

00000000800600a0 <d_5_8>:
    800600a0:	5cbe                	lw	s9,236(sp)
    800600a2:	21ceec77          	.insn	4, 0x21ceec77
    800600a6:	c178a98b          	.insn	4, 0xc178a98b
    800600aa:	108a                	sll	ra,ra,0x22
    800600ac:	e985                	bnez	a1,800600dc <d_5_11+0xc>
    800600ae:	8f90                	.insn	2, 0x8f90

00000000800600b0 <d_5_9>:
    800600b0:	e36d                	bnez	a4,80060192 <d_5_23+0x2>
    800600b2:	bad0                	fsd	fa2,176(a3)
    800600b4:	4204                	lw	s1,0(a2)
    800600b6:	f0f8                	sd	a4,224(s1)
    800600b8:	708518b3          	.insn	4, 0x708518b3
    800600bc:	8dc0                	.insn	2, 0x8dc0
    800600be:	8379                	srl	a4,a4,0x1e

00000000800600c0 <d_5_10>:
    800600c0:	6b11880f          	.insn	4, 0x6b11880f
    800600c4:	b119                	j	8005fcca <_end_data4+0xfaca>
    800600c6:	1164                	add	s1,sp,172
    800600c8:	3339                	addw	t1,t1,-18 # 3bb9e1da <_start-0x44461e26>
    800600ca:	0ef4                	add	a3,sp,860
    800600cc:	f52a                	sd	a0,168(sp)
    800600ce:	7952                	ld	s2,304(sp)

00000000800600d0 <d_5_11>:
    800600d0:	5ccc296f          	jal	s2,8012269c <_end+0xc249c>
    800600d4:	2b45                	addw	s6,s6,17
    800600d6:	f2d9                	bnez	a3,8006005c <d_5_3+0xc>
    800600d8:	9f21                	addw	a4,a4,s0
    800600da:	dc3a                	sw	a4,56(sp)
    800600dc:	bfba0e13          	add	t3,s4,-1029

00000000800600e0 <d_5_12>:
    800600e0:	45612a8f          	.insn	4, 0x45612a8f
    800600e4:	f352                	sd	s4,416(sp)
    800600e6:	31b6                	fld	ft3,360(sp)
    800600e8:	ff94                	sd	a3,56(a5)
    800600ea:	f1e2                	sd	s8,224(sp)
    800600ec:	44d9                	li	s1,22
    800600ee:	9e66                	add	t3,t3,s9

00000000800600f0 <d_5_13>:
    800600f0:	07b4                	add	a3,sp,968
    800600f2:	23b8                	fld	fa4,64(a5)
    800600f4:	95d5                	sra	a1,a1,0x35
    800600f6:	9a140993          	add	s3,s0,-1631 # c9a1 <_start-0x7fff365f>
    800600fa:	9b39                	and	a4,a4,-18
    800600fc:	a53d                	j	8006072a <_end+0x52a>
    800600fe:	db00                	sw	s0,48(a4)

0000000080060100 <d_5_14>:
    80060100:	d645                	beqz	a2,800600a8 <d_5_8+0x8>
    80060102:	5b65                	li	s6,-7
    80060104:	ee6b7227          	.insn	4, 0xee6b7227
    80060108:	5f36abdb          	.insn	4, 0x5f36abdb
    8006010c:	3830                	fld	fa2,112(s0)
    8006010e:	8cd1                	or	s1,s1,a2

0000000080060110 <d_5_15>:
    80060110:	670e                	ld	a4,192(sp)
    80060112:	a7ae                	fsd	fa1,456(sp)
    80060114:	0312e14f          	fnmadd.d	ft2,ft5,fa7,ft0,unknown
    80060118:	fcfa                	sd	t5,120(sp)
    8006011a:	67dd                	lui	a5,0x17
    8006011c:	aa393b6f          	jal	s6,7fff3bbe <_start-0xc442>

0000000080060120 <d_5_16>:
    80060120:	122c                	add	a1,sp,296
    80060122:	16f7d77b          	.insn	4, 0x16f7d77b
    80060126:	ce53bda7          	fsd	ft5,-773(t2)
    8006012a:	0406                	sll	s0,s0,0x1
    8006012c:	c0044b03          	lbu	s6,-1024(s0)

0000000080060130 <d_5_17>:
    80060130:	2fdf 7462 a010      	.insn	6, 0xa01074622fdf
    80060136:	24b8                	fld	fa4,72(s1)
    80060138:	e2ae                	sd	a1,320(sp)
    8006013a:	d6c9                	beqz	a3,800600c4 <d_5_10+0x4>
    8006013c:	dc1f 516e       	.insn	6, 0x0298516edc1f

0000000080060140 <d_5_18>:
    80060140:	0298                	add	a4,sp,320
    80060142:	26bc                	fld	fa5,72(a3)
    80060144:	3751                	addw	a4,a4,-12
    80060146:	a0b157fb          	.insn	4, 0xa0b157fb
    8006014a:	d560352f          	.insn	4, 0xd560352f
    8006014e:	8239                	srl	a2,a2,0xe

0000000080060150 <d_5_19>:
    80060150:	371d                	addw	a4,a4,-25
    80060152:	6c5c                	ld	a5,152(s0)
    80060154:	6326                	ld	t1,72(sp)
    80060156:	ec90                	sd	a2,24(s1)
    80060158:	e959                	bnez	a0,800601ee <d_5_27+0x1e>
    8006015a:	b3f4                	fsd	fa3,224(a5)
    8006015c:	93592223          	sw	s5,-1756(s2) # 1d924 <_start-0x7ffe26dc>

0000000080060160 <d_5_20>:
    80060160:	b8025d83          	lhu	s11,-1152(tp) # fffffffffffffb80 <_end+0xffffffff7ff9f980>
    80060164:	21ba                	fld	ft3,392(sp)
    80060166:	3965                	addw	s2,s2,-7
    80060168:	d63d                	beqz	a2,800600d6 <d_5_11+0x6>
    8006016a:	55b5                	li	a1,-19
    8006016c:	0ed8                	add	a4,sp,852
    8006016e:	3756                	fld	fa4,368(sp)

0000000080060170 <d_5_21>:
    80060170:	eb9d                	bnez	a5,800601a6 <d_5_24+0x6>
    80060172:	0e49f1c3          	.insn	4, 0x0e49f1c3
    80060176:	72a5                	lui	t0,0xfffe9
    80060178:	2886                	fld	fa7,64(sp)
    8006017a:	6da2                	ld	s11,8(sp)
    8006017c:	99081787          	.insn	4, 0x99081787

0000000080060180 <d_5_22>:
    80060180:	bd4cd647          	.insn	4, 0xbd4cd647
    80060184:	e6cfe2b7          	lui	t0,0xe6cfe
    80060188:	d881                	beqz	s1,80060098 <d_5_7+0x8>
    8006018a:	e1bd                	bnez	a1,800601f0 <d_5_27+0x20>
    8006018c:	8a38081b          	addw	a6,a6,-1885

0000000080060190 <d_5_23>:
    80060190:	04f4                	add	a3,sp,588
    80060192:	ea36                	sd	a3,272(sp)
    80060194:	fbb8                	sd	a4,112(a5)
    80060196:	33df a093 9d2c      	.insn	6, 0x9d2ca09333df
    8006019c:	1045                	c.nop	-15
    8006019e:	2d99                	addw	s11,s11,6

00000000800601a0 <d_5_24>:
    800601a0:	1da8                	add	a0,sp,760
    800601a2:	a5d8                	fsd	fa4,136(a1)
    800601a4:	10bd                	add	ra,ra,-17
    800601a6:	bffa                	fsd	ft10,504(sp)
    800601a8:	0357e9a3          	.insn	4, 0x0357e9a3
    800601ac:	3582                	fld	fa1,32(sp)
    800601ae:	0175                	add	sp,sp,29 # 5ddb301d <_start-0x2224cfe3>

00000000800601b0 <d_5_25>:
    800601b0:	1c62                	sll	s8,s8,0x38
    800601b2:	5540                	lw	s0,44(a0)
    800601b4:	d09d7c0f          	.insn	4, 0xd09d7c0f
    800601b8:	9d5d                	.insn	2, 0x9d5d
    800601ba:	78d1                	lui	a7,0xffff4
    800601bc:	6f0e                	ld	t5,192(sp)
    800601be:	6eb2                	ld	t4,264(sp)

00000000800601c0 <d_5_26>:
    800601c0:	3ebd                	addw	t4,t4,-17 # ffffffff858321d1 <_end+0xffffffff057d1fd1>
    800601c2:	60a8                	ld	a0,64(s1)
    800601c4:	64e1                	lui	s1,0x18
    800601c6:	f4ab679b          	.insn	4, 0xf4ab679b
    800601ca:	d006                	sw	ra,32(sp)
    800601cc:	18e0                	add	s0,sp,124
    800601ce:	f11e                	sd	t2,160(sp)

00000000800601d0 <d_5_27>:
    800601d0:	4ca2                	lw	s9,8(sp)
    800601d2:	228a                	fld	ft5,128(sp)
    800601d4:	321b28d3          	.insn	4, 0x321b28d3
    800601d8:	0036                	c.slli	zero,0xd
    800601da:	3f22651b          	.insn	4, 0x3f22651b
    800601de:	3d62                	fld	fs10,56(sp)
    800601e0:	ab6827e3          	.insn	4, 0xab6827e3
    800601e4:	683a                	ld	a6,392(sp)
    800601e6:	16a8                	add	a0,sp,872
    800601e8:	cb7a2c3b          	.insn	4, 0xcb7a2c3b
    800601ec:	9144                	.insn	2, 0x9144
    800601ee:	d1847443          	fmadd.s	fs0,fs0,fs8,fs10
    800601f2:	5336                	lw	t1,108(sp)
    800601f4:	861dff13          	and	t5,s11,-1951
    800601f8:	c131                	beqz	a0,8006023c <_end+0x3c>
    800601fa:	5356                	lw	t1,116(sp)
    800601fc:	9275                	srl	a2,a2,0x3d
    800601fe:	fcdd                	bnez	s1,800601bc <d_5_25+0xc>

Disassembly of section .riscv.attributes:

0000000000000000 <.riscv.attributes>:
   0:	5441                	li	s0,-16
   2:	0000                	unimp
   4:	7200                	ld	s0,32(a2)
   6:	7369                	lui	t1,0xffffa
   8:	01007663          	bgeu	zero,a6,14 <_start-0x7fffffec>
   c:	004a                	c.slli	zero,0x12
   e:	0000                	unimp
  10:	7205                	lui	tp,0xfffe1
  12:	3676                	fld	fa2,376(sp)
  14:	6934                	ld	a3,80(a0)
  16:	7032                	.insn	2, 0x7032
  18:	5f31                	li	t5,-20
  1a:	326d                	addw	tp,tp,-5 # fffffffffffe0ffb <_end+0xffffffff7ff80dfb>
  1c:	3070                	fld	fa2,224(s0)
  1e:	615f 7032 5f31      	.insn	6, 0x5f317032615f
  24:	3266                	fld	ft4,120(sp)
  26:	3270                	fld	fa2,224(a2)
  28:	645f 7032 5f32      	.insn	6, 0x5f327032645f
  2e:	30703263          	.insn	4, 0x30703263
  32:	7a5f 6369 7273      	.insn	6, 0x727363697a5f
  38:	7032                	.insn	2, 0x7032
  3a:	5f30                	lw	a2,120(a4)
  3c:	697a                	ld	s2,408(sp)
  3e:	6566                	ld	a0,88(sp)
  40:	636e                	ld	t1,216(sp)
  42:	6965                	lui	s2,0x19
  44:	7032                	.insn	2, 0x7032
  46:	5f30                	lw	a2,120(a4)
  48:	6d7a                	ld	s10,408(sp)
  4a:	756d                	lui	a0,0xffffb
  4c:	316c                	fld	fa1,224(a0)
  4e:	3070                	fld	fa2,224(s0)
  50:	0800                	add	s0,sp,16
  52:	0a01                	add	s4,s4,0
  54:	Address 0x54 is out of bounds.

