
input_nax_6.elf:     file format elf64-littleriscv


Disassembly of section .text.init:

0000000080000000 <_start>:
    80000000:	00010f97          	auipc	t6,0x10
    80000004:	000f8f93          	mv	t6,t6
    80000008:	000fa083          	lw	ra,0(t6) # 80010000 <_random_data0>
    8000000c:	008fa103          	lw	sp,8(t6)
    80000010:	010fa183          	lw	gp,16(t6)
    80000014:	018fa203          	lw	tp,24(t6)
    80000018:	020fa283          	lw	t0,32(t6)
    8000001c:	028fa303          	lw	t1,40(t6)
    80000020:	030fa383          	lw	t2,48(t6)
    80000024:	038fa403          	lw	s0,56(t6)
    80000028:	040fa483          	lw	s1,64(t6)
    8000002c:	048fa503          	lw	a0,72(t6)
    80000030:	050fa583          	lw	a1,80(t6)
    80000034:	058fa603          	lw	a2,88(t6)
    80000038:	060fa683          	lw	a3,96(t6)
    8000003c:	068fa703          	lw	a4,104(t6)
    80000040:	070fa783          	lw	a5,112(t6)
    80000044:	078fa803          	lw	a6,120(t6)
    80000048:	080fa883          	lw	a7,128(t6)
    8000004c:	088fa903          	lw	s2,136(t6)
    80000050:	090fa983          	lw	s3,144(t6)
    80000054:	098faa03          	lw	s4,152(t6)
    80000058:	0a0faa83          	lw	s5,160(t6)
    8000005c:	0a8fab03          	lw	s6,168(t6)
    80000060:	0b0fab83          	lw	s7,176(t6)
    80000064:	0b8fac03          	lw	s8,184(t6)
    80000068:	0c0fac83          	lw	s9,192(t6)
    8000006c:	0c8fad03          	lw	s10,200(t6)
    80000070:	0d0fad83          	lw	s11,208(t6)
    80000074:	0d8fae03          	lw	t3,216(t6)
    80000078:	0e0fae83          	lw	t4,224(t6)
    8000007c:	0e8faf03          	lw	t5,232(t6)
    80000080:	0f0faf83          	lw	t6,240(t6)
    80000084:	21d0006f          	j	80000aa0 <reset_vector>

0000000080000088 <init_freg>:
    80000088:	00020f97          	auipc	t6,0x20
    8000008c:	f78f8f93          	add	t6,t6,-136 # 80020000 <_random_data1>
    80000090:	000fa007          	flw	ft0,0(t6)
    80000094:	008fa087          	flw	ft1,8(t6)
    80000098:	010fa107          	flw	ft2,16(t6)
    8000009c:	018fa187          	flw	ft3,24(t6)
    800000a0:	020fa207          	flw	ft4,32(t6)
    800000a4:	028fa287          	flw	ft5,40(t6)
    800000a8:	030fa307          	flw	ft6,48(t6)
    800000ac:	038fa387          	flw	ft7,56(t6)
    800000b0:	040fa407          	flw	fs0,64(t6)
    800000b4:	048fa487          	flw	fs1,72(t6)
    800000b8:	050fa507          	flw	fa0,80(t6)
    800000bc:	058fa587          	flw	fa1,88(t6)
    800000c0:	060fa607          	flw	fa2,96(t6)
    800000c4:	068fa687          	flw	fa3,104(t6)
    800000c8:	070fa707          	flw	fa4,112(t6)
    800000cc:	078fa787          	flw	fa5,120(t6)
    800000d0:	080fa807          	flw	fa6,128(t6)
    800000d4:	088fa887          	flw	fa7,136(t6)
    800000d8:	090fa907          	flw	fs2,144(t6)
    800000dc:	098fa987          	flw	fs3,152(t6)
    800000e0:	0a0faa07          	flw	fs4,160(t6)
    800000e4:	0a8faa87          	flw	fs5,168(t6)
    800000e8:	0b0fab07          	flw	fs6,176(t6)
    800000ec:	0b8fab87          	flw	fs7,184(t6)
    800000f0:	0c0fac07          	flw	fs8,192(t6)
    800000f4:	0c8fac87          	flw	fs9,200(t6)
    800000f8:	0d0fad07          	flw	fs10,208(t6)
    800000fc:	0d8fad87          	flw	fs11,216(t6)
    80000100:	0e0fae07          	flw	ft8,224(t6)
    80000104:	0e8fae87          	flw	ft9,232(t6)
    80000108:	0f0faf07          	flw	ft10,240(t6)
    8000010c:	0f8faf87          	flw	ft11,248(t6)
    80000110:	8082                	ret
    80000112:	0001                	nop
    80000114:	00000013          	nop
    80000118:	00000013          	nop
    8000011c:	00000013          	nop

0000000080000120 <trap_stvec>:
    80000120:	00000073          	ecall
    80000124:	00000013          	nop
    80000128:	00000013          	nop
    8000012c:	00000013          	nop

0000000080000130 <csr_dump>:
    80000130:	00002097          	auipc	ra,0x2
    80000134:	0d008093          	add	ra,ra,208 # 80002200 <csr_output_data>
    80000138:	10002173          	csrr	sp,sstatus
    8000013c:	0420ac23          	sw	sp,88(ra)
    80000140:	10402173          	csrr	sp,sie
    80000144:	0620a823          	sw	sp,112(ra)
    80000148:	10502173          	csrr	sp,stvec
    8000014c:	0620ac23          	sw	sp,120(ra)
    80000150:	10602173          	csrr	sp,scounteren
    80000154:	0820a023          	sw	sp,128(ra)
    80000158:	14002173          	csrr	sp,sscratch
    8000015c:	0820a423          	sw	sp,136(ra)
    80000160:	14102173          	csrr	sp,sepc
    80000164:	0820a823          	sw	sp,144(ra)
    80000168:	14202173          	csrr	sp,scause
    8000016c:	0820ac23          	sw	sp,152(ra)
    80000170:	14302173          	csrr	sp,stval
    80000174:	0a20a023          	sw	sp,160(ra)
    80000178:	14402173          	csrr	sp,sip
    8000017c:	f7f17113          	and	sp,sp,-129
    80000180:	0a20a423          	sw	sp,168(ra)
    80000184:	18002173          	csrr	sp,satp
    80000188:	0a20a823          	sw	sp,176(ra)
    8000018c:	f1402173          	csrr	sp,mhartid
    80000190:	0a20ac23          	sw	sp,184(ra)
    80000194:	30002173          	csrr	sp,mstatus
    80000198:	0c20a023          	sw	sp,192(ra)
    8000019c:	30202173          	csrr	sp,medeleg
    800001a0:	0c20a423          	sw	sp,200(ra)
    800001a4:	30302173          	csrr	sp,mideleg
    800001a8:	0c20a823          	sw	sp,208(ra)
    800001ac:	30402173          	csrr	sp,mie
    800001b0:	0c20ac23          	sw	sp,216(ra)
    800001b4:	30502173          	csrr	sp,mtvec
    800001b8:	0e20a023          	sw	sp,224(ra)
    800001bc:	30602173          	csrr	sp,mcounteren
    800001c0:	0e20a423          	sw	sp,232(ra)
    800001c4:	34002173          	csrr	sp,mscratch
    800001c8:	0e20a823          	sw	sp,240(ra)
    800001cc:	34102173          	csrr	sp,mepc
    800001d0:	0e20ac23          	sw	sp,248(ra)
    800001d4:	34202173          	csrr	sp,mcause
    800001d8:	1020a023          	sw	sp,256(ra)
    800001dc:	34302173          	csrr	sp,mtval
    800001e0:	1020a423          	sw	sp,264(ra)
    800001e4:	34402173          	csrr	sp,mip
    800001e8:	f7f17113          	and	sp,sp,-129
    800001ec:	1020a823          	sw	sp,272(ra)
    800001f0:	6519                	lui	a0,0x6
    800001f2:	30052073          	csrs	mstatus,a0

00000000800001f6 <fcsrs_dump>:
    800001f6:	00102173          	frflags	sp
    800001fa:	0420a023          	sw	sp,64(ra)
    800001fe:	00202173          	frrm	sp
    80000202:	0420a423          	sw	sp,72(ra)
    80000206:	00302173          	frcsr	sp
    8000020a:	0420a823          	sw	sp,80(ra)

000000008000020e <reg_dump>:
    8000020e:	00002097          	auipc	ra,0x2
    80000212:	df208093          	add	ra,ra,-526 # 80002000 <begin_signature>
    80000216:	0000a023          	sw	zero,0(ra)
    8000021a:	0020a823          	sw	sp,16(ra)
    8000021e:	0030ac23          	sw	gp,24(ra)
    80000222:	0240a023          	sw	tp,32(ra)
    80000226:	0250a423          	sw	t0,40(ra)
    8000022a:	0260a823          	sw	t1,48(ra)
    8000022e:	0270ac23          	sw	t2,56(ra)
    80000232:	0480a023          	sw	s0,64(ra)
    80000236:	0490a423          	sw	s1,72(ra)
    8000023a:	04a0a823          	sw	a0,80(ra)
    8000023e:	04b0ac23          	sw	a1,88(ra)
    80000242:	06c0a023          	sw	a2,96(ra)
    80000246:	06d0a423          	sw	a3,104(ra)
    8000024a:	06e0a823          	sw	a4,112(ra)
    8000024e:	06f0ac23          	sw	a5,120(ra)
    80000252:	0900a023          	sw	a6,128(ra)
    80000256:	0910a423          	sw	a7,136(ra)
    8000025a:	0920a823          	sw	s2,144(ra)
    8000025e:	0930ac23          	sw	s3,152(ra)
    80000262:	0b40a023          	sw	s4,160(ra)
    80000266:	0b50a423          	sw	s5,168(ra)
    8000026a:	0b60a823          	sw	s6,176(ra)
    8000026e:	0b70ac23          	sw	s7,184(ra)
    80000272:	0d80a023          	sw	s8,192(ra)
    80000276:	0d90a423          	sw	s9,200(ra)
    8000027a:	0db0ac23          	sw	s11,216(ra)
    8000027e:	0fc0a023          	sw	t3,224(ra)
    80000282:	0fd0a423          	sw	t4,232(ra)
    80000286:	0fe0a823          	sw	t5,240(ra)

000000008000028a <freg_dump>:
    8000028a:	00002097          	auipc	ra,0x2
    8000028e:	e7608093          	add	ra,ra,-394 # 80002100 <freg_output_data>
    80000292:	0010a427          	fsw	ft1,8(ra)
    80000296:	0020a827          	fsw	ft2,16(ra)
    8000029a:	0270ac27          	fsw	ft7,56(ra)
    8000029e:	0490a427          	fsw	fs1,72(ra)
    800002a2:	04a0a827          	fsw	fa0,80(ra)
    800002a6:	06c0a027          	fsw	fa2,96(ra)
    800002aa:	06d0a427          	fsw	fa3,104(ra)
    800002ae:	0b50a427          	fsw	fs5,168(ra)
    800002b2:	0b60a827          	fsw	fs6,176(ra)
    800002b6:	0d90a427          	fsw	fs9,200(ra)
    800002ba:	0da0a827          	fsw	fs10,208(ra)
    800002be:	0fc0a027          	fsw	ft8,224(ra)
    800002c2:	0fd0a427          	fsw	ft9,232(ra)
    800002c6:	0fe0a827          	fsw	ft10,240(ra)
    800002ca:	0ff0ac27          	fsw	ft11,248(ra)
    800002ce:	00002097          	auipc	ra,0x2
    800002d2:	e3208093          	add	ra,ra,-462 # 80002100 <freg_output_data>
    800002d6:	0000a027          	fsw	ft0,0(ra)
    800002da:	0030ac27          	fsw	ft3,24(ra)
    800002de:	0240a027          	fsw	ft4,32(ra)
    800002e2:	0250a427          	fsw	ft5,40(ra)
    800002e6:	0260a827          	fsw	ft6,48(ra)
    800002ea:	0480a027          	fsw	fs0,64(ra)
    800002ee:	04b0ac27          	fsw	fa1,88(ra)
    800002f2:	06e0a827          	fsw	fa4,112(ra)
    800002f6:	06f0ac27          	fsw	fa5,120(ra)
    800002fa:	0900a027          	fsw	fa6,128(ra)
    800002fe:	0910a427          	fsw	fa7,136(ra)
    80000302:	0920a827          	fsw	fs2,144(ra)
    80000306:	0930ac27          	fsw	fs3,152(ra)
    8000030a:	0b40a027          	fsw	fs4,160(ra)
    8000030e:	0b70ac27          	fsw	fs7,184(ra)
    80000312:	0d80a027          	fsw	fs8,192(ra)
    80000316:	0db0ac27          	fsw	fs11,216(ra)
    8000031a:	00002097          	auipc	ra,0x2
    8000031e:	ee608093          	add	ra,ra,-282 # 80002200 <csr_output_data>
    80000322:	00002117          	auipc	sp,0x2
    80000326:	cde10113          	add	sp,sp,-802 # 80002000 <begin_signature>
    8000032a:	00002197          	auipc	gp,0x2
    8000032e:	dd618193          	add	gp,gp,-554 # 80002100 <freg_output_data>
    80000332:	00010217          	auipc	tp,0x10
    80000336:	cce20213          	add	tp,tp,-818 # 80010000 <_random_data0>
    8000033a:	00020297          	auipc	t0,0x20
    8000033e:	cc628293          	add	t0,t0,-826 # 80020000 <_random_data1>
    80000342:	00030317          	auipc	t1,0x30
    80000346:	cbe30313          	add	t1,t1,-834 # 80030000 <_random_data2>
    8000034a:	00040397          	auipc	t2,0x40
    8000034e:	cb638393          	add	t2,t2,-842 # 80040000 <_random_data3>
    80000352:	00050417          	auipc	s0,0x50
    80000356:	cae40413          	add	s0,s0,-850 # 80050000 <_random_data4>
    8000035a:	00060497          	auipc	s1,0x60
    8000035e:	ca648493          	add	s1,s1,-858 # 80060000 <_random_data5>

0000000080000362 <load_xreg_nax>:
    80000362:	4502                	lw	a0,0(sp)
    80000364:	4522                	lw	a0,8(sp)
    80000366:	4542                	lw	a0,16(sp)
    80000368:	4562                	lw	a0,24(sp)
    8000036a:	5502                	lw	a0,32(sp)
    8000036c:	5522                	lw	a0,40(sp)
    8000036e:	5542                	lw	a0,48(sp)
    80000370:	5562                	lw	a0,56(sp)
    80000372:	4506                	lw	a0,64(sp)
    80000374:	4526                	lw	a0,72(sp)
    80000376:	4546                	lw	a0,80(sp)
    80000378:	4566                	lw	a0,88(sp)
    8000037a:	5506                	lw	a0,96(sp)
    8000037c:	5526                	lw	a0,104(sp)
    8000037e:	5546                	lw	a0,112(sp)
    80000380:	5566                	lw	a0,120(sp)
    80000382:	450a                	lw	a0,128(sp)
    80000384:	452a                	lw	a0,136(sp)
    80000386:	454a                	lw	a0,144(sp)
    80000388:	456a                	lw	a0,152(sp)
    8000038a:	550a                	lw	a0,160(sp)
    8000038c:	552a                	lw	a0,168(sp)
    8000038e:	554a                	lw	a0,176(sp)
    80000390:	556a                	lw	a0,184(sp)
    80000392:	450e                	lw	a0,192(sp)
    80000394:	452e                	lw	a0,200(sp)
    80000396:	454e                	lw	a0,208(sp)
    80000398:	456e                	lw	a0,216(sp)
    8000039a:	550e                	lw	a0,224(sp)
    8000039c:	552e                	lw	a0,232(sp)
    8000039e:	554e                	lw	a0,240(sp)
    800003a0:	556e                	lw	a0,248(sp)

00000000800003a2 <load_freg_nax>:
    800003a2:	0001a507          	flw	fa0,0(gp)
    800003a6:	0081a507          	flw	fa0,8(gp)
    800003aa:	0101a507          	flw	fa0,16(gp)
    800003ae:	0181a507          	flw	fa0,24(gp)
    800003b2:	0201a507          	flw	fa0,32(gp)
    800003b6:	0281a507          	flw	fa0,40(gp)
    800003ba:	0301a507          	flw	fa0,48(gp)
    800003be:	0381a507          	flw	fa0,56(gp)
    800003c2:	0401a507          	flw	fa0,64(gp)
    800003c6:	0481a507          	flw	fa0,72(gp)
    800003ca:	0501a507          	flw	fa0,80(gp)
    800003ce:	0581a507          	flw	fa0,88(gp)
    800003d2:	0601a507          	flw	fa0,96(gp)
    800003d6:	0681a507          	flw	fa0,104(gp)
    800003da:	0701a507          	flw	fa0,112(gp)
    800003de:	0781a507          	flw	fa0,120(gp)
    800003e2:	0801a507          	flw	fa0,128(gp)
    800003e6:	0881a507          	flw	fa0,136(gp)
    800003ea:	0901a507          	flw	fa0,144(gp)
    800003ee:	0981a507          	flw	fa0,152(gp)
    800003f2:	0a01a507          	flw	fa0,160(gp)
    800003f6:	0a81a507          	flw	fa0,168(gp)
    800003fa:	0b01a507          	flw	fa0,176(gp)
    800003fe:	0b81a507          	flw	fa0,184(gp)
    80000402:	0c01a507          	flw	fa0,192(gp)
    80000406:	0c81a507          	flw	fa0,200(gp)
    8000040a:	0d01a507          	flw	fa0,208(gp)
    8000040e:	0d81a507          	flw	fa0,216(gp)
    80000412:	0e01a507          	flw	fa0,224(gp)
    80000416:	0e81a507          	flw	fa0,232(gp)
    8000041a:	0f01a507          	flw	fa0,240(gp)
    8000041e:	0f81a507          	flw	fa0,248(gp)

0000000080000422 <load_csr_nax>:
    80000422:	0000a503          	lw	a0,0(ra)
    80000426:	0080a503          	lw	a0,8(ra)
    8000042a:	0100a503          	lw	a0,16(ra)
    8000042e:	0180a503          	lw	a0,24(ra)
    80000432:	0200a503          	lw	a0,32(ra)
    80000436:	0280a503          	lw	a0,40(ra)
    8000043a:	0300a503          	lw	a0,48(ra)
    8000043e:	0380a503          	lw	a0,56(ra)
    80000442:	0400a503          	lw	a0,64(ra)
    80000446:	0480a503          	lw	a0,72(ra)
    8000044a:	0500a503          	lw	a0,80(ra)
    8000044e:	0580a503          	lw	a0,88(ra)
    80000452:	0600a503          	lw	a0,96(ra)
    80000456:	0680a503          	lw	a0,104(ra)
    8000045a:	0700a503          	lw	a0,112(ra)
    8000045e:	0780a503          	lw	a0,120(ra)
    80000462:	0800a503          	lw	a0,128(ra)
    80000466:	0880a503          	lw	a0,136(ra)
    8000046a:	0900a503          	lw	a0,144(ra)
    8000046e:	0980a503          	lw	a0,152(ra)
    80000472:	0a00a503          	lw	a0,160(ra)
    80000476:	0a80a503          	lw	a0,168(ra)
    8000047a:	0b00a503          	lw	a0,176(ra)
    8000047e:	0b80a503          	lw	a0,184(ra)
    80000482:	0c00a503          	lw	a0,192(ra)
    80000486:	0c80a503          	lw	a0,200(ra)
    8000048a:	0d00a503          	lw	a0,208(ra)
    8000048e:	0d80a503          	lw	a0,216(ra)
    80000492:	0e00a503          	lw	a0,224(ra)
    80000496:	0e80a503          	lw	a0,232(ra)
    8000049a:	0f00a503          	lw	a0,240(ra)
    8000049e:	0f80a503          	lw	a0,248(ra)
    800004a2:	1000a503          	lw	a0,256(ra)
    800004a6:	1080a503          	lw	a0,264(ra)
    800004aa:	1100a503          	lw	a0,272(ra)
    800004ae:	1180a503          	lw	a0,280(ra)
    800004b2:	1200a503          	lw	a0,288(ra)
    800004b6:	1280a503          	lw	a0,296(ra)
    800004ba:	1300a503          	lw	a0,304(ra)
    800004be:	1380a503          	lw	a0,312(ra)
    800004c2:	1400a503          	lw	a0,320(ra)
    800004c6:	1480a503          	lw	a0,328(ra)
    800004ca:	1500a503          	lw	a0,336(ra)
    800004ce:	1580a503          	lw	a0,344(ra)
    800004d2:	1600a503          	lw	a0,352(ra)
    800004d6:	1680a503          	lw	a0,360(ra)
    800004da:	1700a503          	lw	a0,368(ra)
    800004de:	1780a503          	lw	a0,376(ra)
    800004e2:	1800a503          	lw	a0,384(ra)
    800004e6:	1880a503          	lw	a0,392(ra)
    800004ea:	1900a503          	lw	a0,400(ra)
    800004ee:	1980a503          	lw	a0,408(ra)
    800004f2:	1a00a503          	lw	a0,416(ra)
    800004f6:	1a80a503          	lw	a0,424(ra)
    800004fa:	1b00a503          	lw	a0,432(ra)
    800004fe:	1b80a503          	lw	a0,440(ra)
    80000502:	1c00a503          	lw	a0,448(ra)
    80000506:	1c80a503          	lw	a0,456(ra)
    8000050a:	1d00a503          	lw	a0,464(ra)
    8000050e:	1d80a503          	lw	a0,472(ra)

0000000080000512 <load_raddom_data0_nax>:
    80000512:	00023503          	ld	a0,0(tp) # 0 <_start-0x80000000>
    80000516:	00823503          	ld	a0,8(tp) # 8 <_start-0x7ffffff8>
    8000051a:	01023503          	ld	a0,16(tp) # 10 <_start-0x7ffffff0>
    8000051e:	01823503          	ld	a0,24(tp) # 18 <_start-0x7fffffe8>
    80000522:	02023503          	ld	a0,32(tp) # 20 <_start-0x7fffffe0>
    80000526:	02823503          	ld	a0,40(tp) # 28 <_start-0x7fffffd8>
    8000052a:	03023503          	ld	a0,48(tp) # 30 <_start-0x7fffffd0>
    8000052e:	03823503          	ld	a0,56(tp) # 38 <_start-0x7fffffc8>
    80000532:	04023503          	ld	a0,64(tp) # 40 <_start-0x7fffffc0>
    80000536:	04823503          	ld	a0,72(tp) # 48 <_start-0x7fffffb8>
    8000053a:	05023503          	ld	a0,80(tp) # 50 <_start-0x7fffffb0>
    8000053e:	05823503          	ld	a0,88(tp) # 58 <_start-0x7fffffa8>
    80000542:	06023503          	ld	a0,96(tp) # 60 <_start-0x7fffffa0>
    80000546:	06823503          	ld	a0,104(tp) # 68 <_start-0x7fffff98>
    8000054a:	07023503          	ld	a0,112(tp) # 70 <_start-0x7fffff90>
    8000054e:	07823503          	ld	a0,120(tp) # 78 <_start-0x7fffff88>
    80000552:	08023503          	ld	a0,128(tp) # 80 <_start-0x7fffff80>
    80000556:	08823503          	ld	a0,136(tp) # 88 <_start-0x7fffff78>
    8000055a:	09023503          	ld	a0,144(tp) # 90 <_start-0x7fffff70>
    8000055e:	09823503          	ld	a0,152(tp) # 98 <_start-0x7fffff68>
    80000562:	0a023503          	ld	a0,160(tp) # a0 <_start-0x7fffff60>
    80000566:	0a823503          	ld	a0,168(tp) # a8 <_start-0x7fffff58>
    8000056a:	0b023503          	ld	a0,176(tp) # b0 <_start-0x7fffff50>
    8000056e:	0b823503          	ld	a0,184(tp) # b8 <_start-0x7fffff48>
    80000572:	0c023503          	ld	a0,192(tp) # c0 <_start-0x7fffff40>
    80000576:	0c823503          	ld	a0,200(tp) # c8 <_start-0x7fffff38>
    8000057a:	0d023503          	ld	a0,208(tp) # d0 <_start-0x7fffff30>
    8000057e:	0d823503          	ld	a0,216(tp) # d8 <_start-0x7fffff28>
    80000582:	0e023503          	ld	a0,224(tp) # e0 <_start-0x7fffff20>
    80000586:	0e823503          	ld	a0,232(tp) # e8 <_start-0x7fffff18>
    8000058a:	0f023503          	ld	a0,240(tp) # f0 <_start-0x7fffff10>
    8000058e:	0f823503          	ld	a0,248(tp) # f8 <_start-0x7fffff08>
    80000592:	10023503          	ld	a0,256(tp) # 100 <_start-0x7fffff00>
    80000596:	10823503          	ld	a0,264(tp) # 108 <_start-0x7ffffef8>
    8000059a:	11023503          	ld	a0,272(tp) # 110 <_start-0x7ffffef0>
    8000059e:	11823503          	ld	a0,280(tp) # 118 <_start-0x7ffffee8>
    800005a2:	12023503          	ld	a0,288(tp) # 120 <_start-0x7ffffee0>
    800005a6:	12823503          	ld	a0,296(tp) # 128 <_start-0x7ffffed8>
    800005aa:	13023503          	ld	a0,304(tp) # 130 <_start-0x7ffffed0>
    800005ae:	13823503          	ld	a0,312(tp) # 138 <_start-0x7ffffec8>
    800005b2:	14023503          	ld	a0,320(tp) # 140 <_start-0x7ffffec0>
    800005b6:	14823503          	ld	a0,328(tp) # 148 <_start-0x7ffffeb8>
    800005ba:	15023503          	ld	a0,336(tp) # 150 <_start-0x7ffffeb0>
    800005be:	15823503          	ld	a0,344(tp) # 158 <_start-0x7ffffea8>
    800005c2:	16023503          	ld	a0,352(tp) # 160 <_start-0x7ffffea0>
    800005c6:	16823503          	ld	a0,360(tp) # 168 <_start-0x7ffffe98>
    800005ca:	17023503          	ld	a0,368(tp) # 170 <_start-0x7ffffe90>
    800005ce:	17823503          	ld	a0,376(tp) # 178 <_start-0x7ffffe88>
    800005d2:	18023503          	ld	a0,384(tp) # 180 <_start-0x7ffffe80>
    800005d6:	18823503          	ld	a0,392(tp) # 188 <_start-0x7ffffe78>
    800005da:	19023503          	ld	a0,400(tp) # 190 <_start-0x7ffffe70>
    800005de:	19823503          	ld	a0,408(tp) # 198 <_start-0x7ffffe68>
    800005e2:	1a023503          	ld	a0,416(tp) # 1a0 <_start-0x7ffffe60>
    800005e6:	1a823503          	ld	a0,424(tp) # 1a8 <_start-0x7ffffe58>
    800005ea:	1b023503          	ld	a0,432(tp) # 1b0 <_start-0x7ffffe50>
    800005ee:	1b823503          	ld	a0,440(tp) # 1b8 <_start-0x7ffffe48>
    800005f2:	1c023503          	ld	a0,448(tp) # 1c0 <_start-0x7ffffe40>
    800005f6:	1c823503          	ld	a0,456(tp) # 1c8 <_start-0x7ffffe38>
    800005fa:	1d023503          	ld	a0,464(tp) # 1d0 <_start-0x7ffffe30>
    800005fe:	1d823503          	ld	a0,472(tp) # 1d8 <_start-0x7ffffe28>
    80000602:	1e023503          	ld	a0,480(tp) # 1e0 <_start-0x7ffffe20>
    80000606:	1e823503          	ld	a0,488(tp) # 1e8 <_start-0x7ffffe18>
    8000060a:	1f023503          	ld	a0,496(tp) # 1f0 <_start-0x7ffffe10>
    8000060e:	1f823503          	ld	a0,504(tp) # 1f8 <_start-0x7ffffe08>

0000000080000612 <load_raddom_data1_nax>:
    80000612:	0002b503          	ld	a0,0(t0)
    80000616:	0082b503          	ld	a0,8(t0)
    8000061a:	0102b503          	ld	a0,16(t0)
    8000061e:	0182b503          	ld	a0,24(t0)
    80000622:	0202b503          	ld	a0,32(t0)
    80000626:	0282b503          	ld	a0,40(t0)
    8000062a:	0302b503          	ld	a0,48(t0)
    8000062e:	0382b503          	ld	a0,56(t0)
    80000632:	0402b503          	ld	a0,64(t0)
    80000636:	0482b503          	ld	a0,72(t0)
    8000063a:	0502b503          	ld	a0,80(t0)
    8000063e:	0582b503          	ld	a0,88(t0)
    80000642:	0602b503          	ld	a0,96(t0)
    80000646:	0682b503          	ld	a0,104(t0)
    8000064a:	0702b503          	ld	a0,112(t0)
    8000064e:	0782b503          	ld	a0,120(t0)
    80000652:	0802b503          	ld	a0,128(t0)
    80000656:	0882b503          	ld	a0,136(t0)
    8000065a:	0902b503          	ld	a0,144(t0)
    8000065e:	0982b503          	ld	a0,152(t0)
    80000662:	0a02b503          	ld	a0,160(t0)
    80000666:	0a82b503          	ld	a0,168(t0)
    8000066a:	0b02b503          	ld	a0,176(t0)
    8000066e:	0b82b503          	ld	a0,184(t0)
    80000672:	0c02b503          	ld	a0,192(t0)
    80000676:	0c82b503          	ld	a0,200(t0)
    8000067a:	0d02b503          	ld	a0,208(t0)
    8000067e:	0d82b503          	ld	a0,216(t0)
    80000682:	0e02b503          	ld	a0,224(t0)
    80000686:	0e82b503          	ld	a0,232(t0)
    8000068a:	0f02b503          	ld	a0,240(t0)
    8000068e:	0f82b503          	ld	a0,248(t0)
    80000692:	1002b503          	ld	a0,256(t0)
    80000696:	1082b503          	ld	a0,264(t0)
    8000069a:	1102b503          	ld	a0,272(t0)
    8000069e:	1182b503          	ld	a0,280(t0)
    800006a2:	1202b503          	ld	a0,288(t0)
    800006a6:	1282b503          	ld	a0,296(t0)
    800006aa:	1302b503          	ld	a0,304(t0)
    800006ae:	1382b503          	ld	a0,312(t0)
    800006b2:	1402b503          	ld	a0,320(t0)
    800006b6:	1482b503          	ld	a0,328(t0)
    800006ba:	1502b503          	ld	a0,336(t0)
    800006be:	1582b503          	ld	a0,344(t0)
    800006c2:	1602b503          	ld	a0,352(t0)
    800006c6:	1682b503          	ld	a0,360(t0)
    800006ca:	1702b503          	ld	a0,368(t0)
    800006ce:	1782b503          	ld	a0,376(t0)
    800006d2:	1802b503          	ld	a0,384(t0)
    800006d6:	1882b503          	ld	a0,392(t0)
    800006da:	1902b503          	ld	a0,400(t0)
    800006de:	1982b503          	ld	a0,408(t0)
    800006e2:	1a02b503          	ld	a0,416(t0)
    800006e6:	1a82b503          	ld	a0,424(t0)
    800006ea:	1b02b503          	ld	a0,432(t0)
    800006ee:	1b82b503          	ld	a0,440(t0)
    800006f2:	1c02b503          	ld	a0,448(t0)
    800006f6:	1c82b503          	ld	a0,456(t0)
    800006fa:	1d02b503          	ld	a0,464(t0)
    800006fe:	1d82b503          	ld	a0,472(t0)
    80000702:	1e02b503          	ld	a0,480(t0)
    80000706:	1e82b503          	ld	a0,488(t0)
    8000070a:	1f02b503          	ld	a0,496(t0)
    8000070e:	1f82b503          	ld	a0,504(t0)

0000000080000712 <load_raddom_data2_nax>:
    80000712:	00033503          	ld	a0,0(t1)
    80000716:	00833503          	ld	a0,8(t1)
    8000071a:	01033503          	ld	a0,16(t1)
    8000071e:	01833503          	ld	a0,24(t1)
    80000722:	02033503          	ld	a0,32(t1)
    80000726:	02833503          	ld	a0,40(t1)
    8000072a:	03033503          	ld	a0,48(t1)
    8000072e:	03833503          	ld	a0,56(t1)
    80000732:	04033503          	ld	a0,64(t1)
    80000736:	04833503          	ld	a0,72(t1)
    8000073a:	05033503          	ld	a0,80(t1)
    8000073e:	05833503          	ld	a0,88(t1)
    80000742:	06033503          	ld	a0,96(t1)
    80000746:	06833503          	ld	a0,104(t1)
    8000074a:	07033503          	ld	a0,112(t1)
    8000074e:	07833503          	ld	a0,120(t1)
    80000752:	08033503          	ld	a0,128(t1)
    80000756:	08833503          	ld	a0,136(t1)
    8000075a:	09033503          	ld	a0,144(t1)
    8000075e:	09833503          	ld	a0,152(t1)
    80000762:	0a033503          	ld	a0,160(t1)
    80000766:	0a833503          	ld	a0,168(t1)
    8000076a:	0b033503          	ld	a0,176(t1)
    8000076e:	0b833503          	ld	a0,184(t1)
    80000772:	0c033503          	ld	a0,192(t1)
    80000776:	0c833503          	ld	a0,200(t1)
    8000077a:	0d033503          	ld	a0,208(t1)
    8000077e:	0d833503          	ld	a0,216(t1)
    80000782:	0e033503          	ld	a0,224(t1)
    80000786:	0e833503          	ld	a0,232(t1)
    8000078a:	0f033503          	ld	a0,240(t1)
    8000078e:	0f833503          	ld	a0,248(t1)
    80000792:	10033503          	ld	a0,256(t1)
    80000796:	10833503          	ld	a0,264(t1)
    8000079a:	11033503          	ld	a0,272(t1)
    8000079e:	11833503          	ld	a0,280(t1)
    800007a2:	12033503          	ld	a0,288(t1)
    800007a6:	12833503          	ld	a0,296(t1)
    800007aa:	13033503          	ld	a0,304(t1)
    800007ae:	13833503          	ld	a0,312(t1)
    800007b2:	14033503          	ld	a0,320(t1)
    800007b6:	14833503          	ld	a0,328(t1)
    800007ba:	15033503          	ld	a0,336(t1)
    800007be:	15833503          	ld	a0,344(t1)
    800007c2:	16033503          	ld	a0,352(t1)
    800007c6:	16833503          	ld	a0,360(t1)
    800007ca:	17033503          	ld	a0,368(t1)
    800007ce:	17833503          	ld	a0,376(t1)
    800007d2:	18033503          	ld	a0,384(t1)
    800007d6:	18833503          	ld	a0,392(t1)
    800007da:	19033503          	ld	a0,400(t1)
    800007de:	19833503          	ld	a0,408(t1)
    800007e2:	1a033503          	ld	a0,416(t1)
    800007e6:	1a833503          	ld	a0,424(t1)
    800007ea:	1b033503          	ld	a0,432(t1)
    800007ee:	1b833503          	ld	a0,440(t1)
    800007f2:	1c033503          	ld	a0,448(t1)
    800007f6:	1c833503          	ld	a0,456(t1)
    800007fa:	1d033503          	ld	a0,464(t1)
    800007fe:	1d833503          	ld	a0,472(t1)
    80000802:	1e033503          	ld	a0,480(t1)
    80000806:	1e833503          	ld	a0,488(t1)
    8000080a:	1f033503          	ld	a0,496(t1)
    8000080e:	1f833503          	ld	a0,504(t1)

0000000080000812 <load_raddom_data3_nax>:
    80000812:	0003b503          	ld	a0,0(t2)
    80000816:	0083b503          	ld	a0,8(t2)
    8000081a:	0103b503          	ld	a0,16(t2)
    8000081e:	0183b503          	ld	a0,24(t2)
    80000822:	0203b503          	ld	a0,32(t2)
    80000826:	0283b503          	ld	a0,40(t2)
    8000082a:	0303b503          	ld	a0,48(t2)
    8000082e:	0383b503          	ld	a0,56(t2)
    80000832:	0403b503          	ld	a0,64(t2)
    80000836:	0483b503          	ld	a0,72(t2)
    8000083a:	0503b503          	ld	a0,80(t2)
    8000083e:	0583b503          	ld	a0,88(t2)
    80000842:	0603b503          	ld	a0,96(t2)
    80000846:	0683b503          	ld	a0,104(t2)
    8000084a:	0703b503          	ld	a0,112(t2)
    8000084e:	0783b503          	ld	a0,120(t2)
    80000852:	0803b503          	ld	a0,128(t2)
    80000856:	0883b503          	ld	a0,136(t2)
    8000085a:	0903b503          	ld	a0,144(t2)
    8000085e:	0983b503          	ld	a0,152(t2)
    80000862:	0a03b503          	ld	a0,160(t2)
    80000866:	0a83b503          	ld	a0,168(t2)
    8000086a:	0b03b503          	ld	a0,176(t2)
    8000086e:	0b83b503          	ld	a0,184(t2)
    80000872:	0c03b503          	ld	a0,192(t2)
    80000876:	0c83b503          	ld	a0,200(t2)
    8000087a:	0d03b503          	ld	a0,208(t2)
    8000087e:	0d83b503          	ld	a0,216(t2)
    80000882:	0e03b503          	ld	a0,224(t2)
    80000886:	0e83b503          	ld	a0,232(t2)
    8000088a:	0f03b503          	ld	a0,240(t2)
    8000088e:	0f83b503          	ld	a0,248(t2)
    80000892:	1003b503          	ld	a0,256(t2)
    80000896:	1083b503          	ld	a0,264(t2)
    8000089a:	1103b503          	ld	a0,272(t2)
    8000089e:	1183b503          	ld	a0,280(t2)
    800008a2:	1203b503          	ld	a0,288(t2)
    800008a6:	1283b503          	ld	a0,296(t2)
    800008aa:	1303b503          	ld	a0,304(t2)
    800008ae:	1383b503          	ld	a0,312(t2)
    800008b2:	1403b503          	ld	a0,320(t2)
    800008b6:	1483b503          	ld	a0,328(t2)
    800008ba:	1503b503          	ld	a0,336(t2)
    800008be:	1583b503          	ld	a0,344(t2)
    800008c2:	1603b503          	ld	a0,352(t2)
    800008c6:	1683b503          	ld	a0,360(t2)
    800008ca:	1703b503          	ld	a0,368(t2)
    800008ce:	1783b503          	ld	a0,376(t2)
    800008d2:	1803b503          	ld	a0,384(t2)
    800008d6:	1883b503          	ld	a0,392(t2)
    800008da:	1903b503          	ld	a0,400(t2)
    800008de:	1983b503          	ld	a0,408(t2)
    800008e2:	1a03b503          	ld	a0,416(t2)
    800008e6:	1a83b503          	ld	a0,424(t2)
    800008ea:	1b03b503          	ld	a0,432(t2)
    800008ee:	1b83b503          	ld	a0,440(t2)
    800008f2:	1c03b503          	ld	a0,448(t2)
    800008f6:	1c83b503          	ld	a0,456(t2)
    800008fa:	1d03b503          	ld	a0,464(t2)
    800008fe:	1d83b503          	ld	a0,472(t2)
    80000902:	1e03b503          	ld	a0,480(t2)
    80000906:	1e83b503          	ld	a0,488(t2)
    8000090a:	1f03b503          	ld	a0,496(t2)
    8000090e:	1f83b503          	ld	a0,504(t2)

0000000080000912 <load_raddom_data4_nax>:
    80000912:	6008                	ld	a0,0(s0)
    80000914:	6408                	ld	a0,8(s0)
    80000916:	6808                	ld	a0,16(s0)
    80000918:	6c08                	ld	a0,24(s0)
    8000091a:	7008                	ld	a0,32(s0)
    8000091c:	7408                	ld	a0,40(s0)
    8000091e:	7808                	ld	a0,48(s0)
    80000920:	7c08                	ld	a0,56(s0)
    80000922:	6028                	ld	a0,64(s0)
    80000924:	6428                	ld	a0,72(s0)
    80000926:	6828                	ld	a0,80(s0)
    80000928:	6c28                	ld	a0,88(s0)
    8000092a:	7028                	ld	a0,96(s0)
    8000092c:	7428                	ld	a0,104(s0)
    8000092e:	7828                	ld	a0,112(s0)
    80000930:	7c28                	ld	a0,120(s0)
    80000932:	6048                	ld	a0,128(s0)
    80000934:	6448                	ld	a0,136(s0)
    80000936:	6848                	ld	a0,144(s0)
    80000938:	6c48                	ld	a0,152(s0)
    8000093a:	7048                	ld	a0,160(s0)
    8000093c:	7448                	ld	a0,168(s0)
    8000093e:	7848                	ld	a0,176(s0)
    80000940:	7c48                	ld	a0,184(s0)
    80000942:	6068                	ld	a0,192(s0)
    80000944:	6468                	ld	a0,200(s0)
    80000946:	6868                	ld	a0,208(s0)
    80000948:	6c68                	ld	a0,216(s0)
    8000094a:	7068                	ld	a0,224(s0)
    8000094c:	7468                	ld	a0,232(s0)
    8000094e:	7868                	ld	a0,240(s0)
    80000950:	7c68                	ld	a0,248(s0)
    80000952:	10043503          	ld	a0,256(s0)
    80000956:	10843503          	ld	a0,264(s0)
    8000095a:	11043503          	ld	a0,272(s0)
    8000095e:	11843503          	ld	a0,280(s0)
    80000962:	12043503          	ld	a0,288(s0)
    80000966:	12843503          	ld	a0,296(s0)
    8000096a:	13043503          	ld	a0,304(s0)
    8000096e:	13843503          	ld	a0,312(s0)
    80000972:	14043503          	ld	a0,320(s0)
    80000976:	14843503          	ld	a0,328(s0)
    8000097a:	15043503          	ld	a0,336(s0)
    8000097e:	15843503          	ld	a0,344(s0)
    80000982:	16043503          	ld	a0,352(s0)
    80000986:	16843503          	ld	a0,360(s0)
    8000098a:	17043503          	ld	a0,368(s0)
    8000098e:	17843503          	ld	a0,376(s0)
    80000992:	18043503          	ld	a0,384(s0)
    80000996:	18843503          	ld	a0,392(s0)
    8000099a:	19043503          	ld	a0,400(s0)
    8000099e:	19843503          	ld	a0,408(s0)
    800009a2:	1a043503          	ld	a0,416(s0)
    800009a6:	1a843503          	ld	a0,424(s0)
    800009aa:	1b043503          	ld	a0,432(s0)
    800009ae:	1b843503          	ld	a0,440(s0)
    800009b2:	1c043503          	ld	a0,448(s0)
    800009b6:	1c843503          	ld	a0,456(s0)
    800009ba:	1d043503          	ld	a0,464(s0)
    800009be:	1d843503          	ld	a0,472(s0)
    800009c2:	1e043503          	ld	a0,480(s0)
    800009c6:	1e843503          	ld	a0,488(s0)
    800009ca:	1f043503          	ld	a0,496(s0)
    800009ce:	1f843503          	ld	a0,504(s0)

00000000800009d2 <load_raddom_data5_nax>:
    800009d2:	6088                	ld	a0,0(s1)
    800009d4:	6488                	ld	a0,8(s1)
    800009d6:	6888                	ld	a0,16(s1)
    800009d8:	6c88                	ld	a0,24(s1)
    800009da:	7088                	ld	a0,32(s1)
    800009dc:	7488                	ld	a0,40(s1)
    800009de:	7888                	ld	a0,48(s1)
    800009e0:	7c88                	ld	a0,56(s1)
    800009e2:	60a8                	ld	a0,64(s1)
    800009e4:	64a8                	ld	a0,72(s1)
    800009e6:	68a8                	ld	a0,80(s1)
    800009e8:	6ca8                	ld	a0,88(s1)
    800009ea:	70a8                	ld	a0,96(s1)
    800009ec:	74a8                	ld	a0,104(s1)
    800009ee:	78a8                	ld	a0,112(s1)
    800009f0:	7ca8                	ld	a0,120(s1)
    800009f2:	60c8                	ld	a0,128(s1)
    800009f4:	64c8                	ld	a0,136(s1)
    800009f6:	68c8                	ld	a0,144(s1)
    800009f8:	6cc8                	ld	a0,152(s1)
    800009fa:	70c8                	ld	a0,160(s1)
    800009fc:	74c8                	ld	a0,168(s1)
    800009fe:	78c8                	ld	a0,176(s1)
    80000a00:	7cc8                	ld	a0,184(s1)
    80000a02:	60e8                	ld	a0,192(s1)
    80000a04:	64e8                	ld	a0,200(s1)
    80000a06:	68e8                	ld	a0,208(s1)
    80000a08:	6ce8                	ld	a0,216(s1)
    80000a0a:	70e8                	ld	a0,224(s1)
    80000a0c:	74e8                	ld	a0,232(s1)
    80000a0e:	78e8                	ld	a0,240(s1)
    80000a10:	7ce8                	ld	a0,248(s1)
    80000a12:	1004b503          	ld	a0,256(s1)
    80000a16:	1084b503          	ld	a0,264(s1)
    80000a1a:	1104b503          	ld	a0,272(s1)
    80000a1e:	1184b503          	ld	a0,280(s1)
    80000a22:	1204b503          	ld	a0,288(s1)
    80000a26:	1284b503          	ld	a0,296(s1)
    80000a2a:	1304b503          	ld	a0,304(s1)
    80000a2e:	1384b503          	ld	a0,312(s1)
    80000a32:	1404b503          	ld	a0,320(s1)
    80000a36:	1484b503          	ld	a0,328(s1)
    80000a3a:	1504b503          	ld	a0,336(s1)
    80000a3e:	1584b503          	ld	a0,344(s1)
    80000a42:	1604b503          	ld	a0,352(s1)
    80000a46:	1684b503          	ld	a0,360(s1)
    80000a4a:	1704b503          	ld	a0,368(s1)
    80000a4e:	1784b503          	ld	a0,376(s1)
    80000a52:	1804b503          	ld	a0,384(s1)
    80000a56:	1884b503          	ld	a0,392(s1)
    80000a5a:	1904b503          	ld	a0,400(s1)
    80000a5e:	1984b503          	ld	a0,408(s1)
    80000a62:	1a04b503          	ld	a0,416(s1)
    80000a66:	1a84b503          	ld	a0,424(s1)
    80000a6a:	1b04b503          	ld	a0,432(s1)
    80000a6e:	1b84b503          	ld	a0,440(s1)
    80000a72:	1c04b503          	ld	a0,448(s1)
    80000a76:	1c84b503          	ld	a0,456(s1)
    80000a7a:	1d04b503          	ld	a0,464(s1)
    80000a7e:	1d84b503          	ld	a0,472(s1)
    80000a82:	1e04b503          	ld	a0,480(s1)
    80000a86:	1e84b503          	ld	a0,488(s1)
    80000a8a:	1f04b503          	ld	a0,496(s1)
    80000a8e:	1f84b503          	ld	a0,504(s1)

0000000080000a92 <write_tohost>:
    80000a92:	4185                	li	gp,1
    80000a94:	00000f17          	auipc	t5,0x0
    80000a98:	563f2623          	sw	gp,1388(t5) # 80001000 <tohost>

0000000080000a9c <_test_end>:
    80000a9c:	a001                	j	80000a9c <_test_end>
    80000a9e:	0001                	nop

0000000080000aa0 <reset_vector>:
    80000aa0:	30005073          	csrw	mstatus,0
    80000aa4:	f1402573          	csrr	a0,mhartid
    80000aa8:	e101                	bnez	a0,80000aa8 <reset_vector+0x8>
    80000aaa:	00000297          	auipc	t0,0x0
    80000aae:	01a28293          	add	t0,t0,26 # 80000ac4 <reset_vector+0x24>
    80000ab2:	30529073          	csrw	mtvec,t0
    80000ab6:	30205073          	csrw	medeleg,0
    80000aba:	30305073          	csrw	mideleg,0
    80000abe:	30405073          	csrw	mie,0
    80000ac2:	0001                	nop
    80000ac4:	00000297          	auipc	t0,0x0
    80000ac8:	01028293          	add	t0,t0,16 # 80000ad4 <reset_vector+0x34>
    80000acc:	30529073          	csrw	mtvec,t0
    80000ad0:	18005073          	csrw	satp,0
    80000ad4:	fffff297          	auipc	t0,0xfffff
    80000ad8:	65c28293          	add	t0,t0,1628 # 80000130 <csr_dump>
    80000adc:	30529073          	csrw	mtvec,t0
    80000ae0:	4181                	li	gp,0
    80000ae2:	4505                	li	a0,1
    80000ae4:	057e                	sll	a0,a0,0x1f
    80000ae6:	00055a63          	bgez	a0,80000afa <reset_vector+0x5a>
    80000aea:	0ff0000f          	fence
    80000aee:	4185                	li	gp,1
    80000af0:	05d00893          	li	a7,93
    80000af4:	4501                	li	a0,0
    80000af6:	00000073          	ecall
    80000afa:	fffff297          	auipc	t0,0xfffff
    80000afe:	62628293          	add	t0,t0,1574 # 80000120 <trap_stvec>
    80000b02:	10529073          	csrw	stvec,t0
    80000b06:	62ad                	lui	t0,0xb
    80000b08:	1092829b          	addw	t0,t0,265 # b109 <_start-0x7fff4ef7>
    80000b0c:	3022a073          	csrs	medeleg,t0
    80000b10:	6521                	lui	a0,0x8
    80000b12:	8005051b          	addw	a0,a0,-2048 # 7800 <_start-0x7fff8800>
    80000b16:	30052073          	csrs	mstatus,a0
    80000b1a:	00305073          	csrw	fcsr,0
    80000b1e:	d6aff0ef          	jal	80000088 <init_freg>
    80000b22:	b0201073          	csrw	minstret,zero
    80000b26:	f1402573          	csrr	a0,mhartid

0000000080000b2a <_fuzz_prefix>:
    80000b2a:	8f39                	xor	a4,a4,a4
    80000b2c:	458d                	li	a1,3
    80000b2e:	05ca                	sll	a1,a1,0x12
    80000b30:	972e                	add	a4,a4,a1
    80000b32:	4605                	li	a2,1
    80000b34:	0612                	sll	a2,a2,0x4
    80000b36:	9732                	add	a4,a4,a2
    80000b38:	14271573          	csrrw	a0,scause,a4

0000000080000b3c <_p1>:
    80000b3c:	180066f3          	csrrs	a3,satp,0

0000000080000b40 <_p2>:
    80000b40:	3001d573          	csrrw	a0,mstatus,3

0000000080000b44 <_end_prefix>:
    80000b44:	00000297          	auipc	t0,0x0
    80000b48:	03c28293          	add	t0,t0,60 # 80000b80 <_fuzz_main>
    80000b4c:	34129073          	csrw	mepc,t0
    80000b50:	4281                	li	t0,0
    80000b52:	30200073          	mret
    80000b56:	00000013          	nop
    80000b5a:	00000013          	nop
    80000b5e:	00000013          	nop
    80000b62:	00000013          	nop
    80000b66:	00000013          	nop
    80000b6a:	00000013          	nop
    80000b6e:	00000013          	nop
    80000b72:	00000013          	nop
    80000b76:	00000013          	nop
    80000b7a:	00000013          	nop
    80000b7e:	0001                	nop

0000000080000b80 <_fuzz_main>:
    80000b80:	9aa0f413          	and	s0,ra,-1622

0000000080000b84 <_l1>:
    80000b84:	b8abcf43          	fmadd.s	ft10,fs7,fa0,fs7,rmm

0000000080000b88 <_l2>:
    80000b88:	a37f0453          	fle.d	s0,ft10,fs7

0000000080000b8c <_l3>:
    80000b8c:	d22ba653          	fcvt.d.l	fa2,s7,rdn

0000000080000b90 <_l4>:
    80000b90:	40a085bb          	subw	a1,ra,a0

0000000080000b94 <_l5>:
    80000b94:	d2230253          	fcvt.d.l	ft4,t1,rne

0000000080000b98 <_l6>:
    80000b98:	01ce4e33          	xor	t3,t3,t3
    80000b9c:	420d                	li	tp,3
    80000b9e:	0216                	sll	tp,tp,0x5
    80000ba0:	9e12                	add	t3,t3,tp
    80000ba2:	4105                	li	sp,1
    80000ba4:	014a                	sll	sp,sp,0x12
    80000ba6:	9e0a                	add	t3,t3,sp
    80000ba8:	4b85                	li	s7,1
    80000baa:	0bde                	sll	s7,s7,0x17
    80000bac:	9e5e                	add	t3,t3,s7
    80000bae:	142e2373          	csrrs	t1,scause,t3

0000000080000bb2 <_l7>:
    80000bb2:	0002f297          	auipc	t0,0x2f
    80000bb6:	60e28293          	add	t0,t0,1550 # 800301c0 <d_2_26>
    80000bba:	00029503          	lh	a0,0(t0)

0000000080000bbe <_l8>:
    80000bbe:	b345974b          	fnmsub.d	fa4,fa1,fs4,fs6,rtz

0000000080000bc2 <_l9>:
    80000bc2:	143fe273          	csrrs	tp,stval,31

0000000080000bc6 <_l10>:
    80000bc6:	02124333          	div	t1,tp,ra

0000000080000bca <_l11>:
    80000bca:	21ec1053          	fsgnjn.s	ft0,fs8,ft10

0000000080000bce <_l12>:
    80000bce:	00000597          	auipc	a1,0x0
    80000bd2:	16a58593          	add	a1,a1,362 # 80000d38 <_l67>
    80000bd6:	000587e7          	jalr	a5,a1

0000000080000bda <_l13>:
    80000bda:	00000f17          	auipc	t5,0x0
    80000bde:	014f0f13          	add	t5,t5,20 # 80000bee <_l16>
    80000be2:	01cf1783          	lh	a5,28(t5)

0000000080000be6 <_l14>:
    80000be6:	138032d3          	fmul.d	ft5,ft0,fs8,rup

0000000080000bea <_l15>:
    80000bea:	02a7b053          	fadd.d	ft0,fa5,fa0,rup

0000000080000bee <_l16>:
    80000bee:	01d7d13b          	srlw	sp,a5,t4

0000000080000bf2 <_l17>:
    80000bf2:	03720a63          	beq	tp,s7,80000c26 <_l27>

0000000080000bf6 <_l18>:
    80000bf6:	037e06b3          	mul	a3,t3,s7

0000000080000bfa <_l19>:
    80000bfa:	285b8a53          	fmin.s	fs4,fs7,ft5

0000000080000bfe <_l20>:
    80000bfe:	03157db3          	remu	s11,a0,a7

0000000080000c02 <_l21>:
    80000c02:	4c81                	li	s9,0
    80000c04:	00001297          	auipc	t0,0x1
    80000c08:	7dc28293          	add	t0,t0,2012 # 800023e0 <end_signature>
    80000c0c:	02e1                	add	t0,t0,24
    80000c0e:	125c8073          	sfence.vma	s9,t0

0000000080000c12 <_l22>:
    80000c12:	d8531bcb          	fnmsub.s	fs7,ft6,ft5,fs11,rtz

0000000080000c16 <_l23>:
    80000c16:	02b488bb          	mulw	a7,s1,a1

0000000080000c1a <_l24>:
    80000c1a:	00000eb7          	lui	t4,0x0

0000000080000c1e <_l25>:
    80000c1e:	d01f28d3          	fcvt.s.wu	fa7,t5,rdn

0000000080000c22 <_l26>:
    80000c22:	0800a953          	fsub.s	fs2,ft1,ft0,rdn

0000000080000c26 <_l27>:
    80000c26:	20ed25c7          	fmsub.s	fa1,fs10,fa4,ft4,rdn

0000000080000c2a <_l28>:
    80000c2a:	0003f797          	auipc	a5,0x3f
    80000c2e:	49678793          	add	a5,a5,1174 # 800400c0 <d_3_10>
    80000c32:	0087ab83          	lw	s7,8(a5)

0000000080000c36 <_l29>:
    80000c36:	226b01d3          	fsgnj.d	ft3,fs6,ft6

0000000080000c3a <_l30>:
    80000c3a:	019cccb3          	xor	s9,s9,s9
    80000c3e:	142caa73          	csrrs	s4,scause,s9

0000000080000c42 <_l31>:
    80000c42:	005d97bb          	sllw	a5,s11,t0

0000000080000c46 <_l32>:
    80000c46:	01a70ebb          	addw	t4,a4,s10

0000000080000c4a <_l33>:
    80000c4a:	20a30f53          	fsgnj.s	ft10,ft6,fa0

0000000080000c4e <_l34>:
    80000c4e:	09ee7e13          	and	t3,t3,158

0000000080000c52 <_l35>:
    80000c52:	302e67f3          	csrrs	a5,medeleg,28

0000000080000c56 <_l36>:
    80000c56:	0003fa17          	auipc	s4,0x3f
    80000c5a:	46aa0a13          	add	s4,s4,1130 # 800400c0 <d_3_10>
    80000c5e:	ffba3823          	sd	s11,-16(s4)

0000000080000c62 <_l37>:
    80000c62:	d019a2d3          	fcvt.s.wu	ft5,s3,rdn

0000000080000c66 <_l38>:
    80000c66:	e0070153          	fmv.x.w	sp,fa4

0000000080000c6a <_l39>:
    80000c6a:	0000f417          	auipc	s0,0xf
    80000c6e:	42640413          	add	s0,s0,1062 # 80010090 <d_0_7>
    80000c72:	00b41023          	sh	a1,0(s0)

0000000080000c76 <_l40>:
    80000c76:	131487c7          	fmsub.d	fa5,fs1,fa7,ft2,rne

0000000080000c7a <_l41>:
    80000c7a:	20f7afd3          	fabs.s	ft11,fa5

0000000080000c7e <_l42>:
    80000c7e:	0003f797          	auipc	a5,0x3f
    80000c82:	4a278793          	add	a5,a5,1186 # 80040120 <d_3_16>
    80000c86:	87be                	mv	a5,a5
    80000c88:	41e7a1af          	amoor.w	gp,t5,(a5)

0000000080000c8c <_l43>:
    80000c8c:	9002                	ebreak

0000000080000c8e <_l44>:
    80000c8e:	0003fa17          	auipc	s4,0x3f
    80000c92:	3d2a0a13          	add	s4,s4,978 # 80040060 <d_3_4>
    80000c96:	0a41                	add	s4,s4,16
    80000c98:	c01a252f          	amominu.w	a0,ra,(s4)

0000000080000c9c <_l45>:
    80000c9c:	28be9547          	fmsub.s	fa0,ft9,fa1,ft5,rtz

0000000080000ca0 <_l46>:
    80000ca0:	0000f717          	auipc	a4,0xf
    80000ca4:	52070713          	add	a4,a4,1312 # 800101c0 <d_0_26>
    80000ca8:	ffa71a03          	lh	s4,-6(a4)

0000000080000cac <_l47>:
    80000cac:	001f7df3          	csrrc	s11,fflags,30

0000000080000cb0 <_l48>:
    80000cb0:	0001fc97          	auipc	s9,0x1f
    80000cb4:	420c8c93          	add	s9,s9,1056 # 800200d0 <d_1_11>
    80000cb8:	ffacaa23          	sw	s10,-12(s9)

0000000080000cbc <_l49>:
    80000cbc:	00000497          	auipc	s1,0x0
    80000cc0:	02248493          	add	s1,s1,34 # 80000cde <_l52>
    80000cc4:	34149073          	csrw	mepc,s1
    80000cc8:	30200073          	mret

0000000080000ccc <_l50>:
    80000ccc:	0001fd97          	auipc	s11,0x1f
    80000cd0:	394d8d93          	add	s11,s11,916 # 80020060 <d_1_4>
    80000cd4:	0da1                	add	s11,s11,8
    80000cd6:	804dbeaf          	amomin.d	t4,tp,(s11)

0000000080000cda <_l51>:
    80000cda:	13a90953          	fmul.d	fs2,fs2,fs10,rne

0000000080000cde <_l52>:
    80000cde:	05cee363          	bltu	t4,t3,80000d24 <_l62>

0000000080000ce2 <_l53>:
    80000ce2:	01fc141b          	sllw	s0,s8,0x1f

0000000080000ce6 <_l54>:
    80000ce6:	0004f797          	auipc	a5,0x4f
    80000cea:	46a78793          	add	a5,a5,1130 # 80050150 <d_4_19>
    80000cee:	17d1                	add	a5,a5,-12
    80000cf0:	ffe008b7          	lui	a7,0xffe00
    80000cf4:	0117c7b3          	xor	a5,a5,a7
    80000cf8:	6117abaf          	amoand.w	s7,a7,(a5)

0000000080000cfc <_l55>:
    80000cfc:	23ba15d3          	fsgnjn.d	fa1,fs4,fs11

0000000080000d00 <_l56>:
    80000d00:	223718d3          	fsgnjn.d	fa7,fa4,ft3

0000000080000d04 <_l57>:
    80000d04:	22f40bd3          	fsgnj.d	fs7,fs0,fa5

0000000080000d08 <_l58>:
    80000d08:	4012d5bb          	sraw	a1,t0,ra

0000000080000d0c <_l59>:
    80000d0c:	4605                	li	a2,1
    80000d0e:	00001297          	auipc	t0,0x1
    80000d12:	6d228293          	add	t0,t0,1746 # 800023e0 <end_signature>
    80000d16:	8296                	mv	t0,t0
    80000d18:	12560073          	sfence.vma	a2,t0

0000000080000d1c <_l60>:
    80000d1c:	0195f663          	bgeu	a1,s9,80000d28 <_l63>

0000000080000d20 <_l61>:
    80000d20:	d21688d3          	fcvt.d.wu	fa7,a3

0000000080000d24 <_l62>:
    80000d24:	2bb43e13          	sltiu	t3,s0,699

0000000080000d28 <_l63>:
    80000d28:	022c0533          	mul	a0,s8,sp

0000000080000d2c <_l64>:
    80000d2c:	a32a1f53          	flt.d	t5,fs4,fs2

0000000080000d30 <_l65>:
    80000d30:	c2181c53          	fcvt.wu.d	s8,fa6,rtz

0000000080000d34 <_l66>:
    80000d34:	7c7366b7          	lui	a3,0x7c736

0000000080000d38 <_l67>:
    80000d38:	0342acb3          	mulhsu	s9,t0,s4

0000000080000d3c <_l68>:
    80000d3c:	89414413          	xor	s0,sp,-1900

0000000080000d40 <_l69>:
    80000d40:	1107b553          	fmul.s	fa0,fa5,fa6,rup

0000000080000d44 <_l70>:
    80000d44:	0004f797          	auipc	a5,0x4f
    80000d48:	43c78793          	add	a5,a5,1084 # 80050180 <d_4_22>
    80000d4c:	fe87ad87          	flw	fs11,-24(a5)

0000000080000d50 <_l71>:
    80000d50:	28751853          	fmax.s	fa6,fa0,ft7

0000000080000d54 <_l72>:
    80000d54:	d224c3d3          	fcvt.d.l	ft7,s1,rmm

0000000080000d58 <_l73>:
    80000d58:	0002f117          	auipc	sp,0x2f
    80000d5c:	2e810113          	add	sp,sp,744 # 80030040 <d_2_2>
    80000d60:	810a                	mv	sp,sp
    80000d62:	81d1392f          	amomin.d	s2,t4,(sp)

0000000080000d66 <_l74>:
    80000d66:	0000f097          	auipc	ra,0xf
    80000d6a:	41a08093          	add	ra,ra,1050 # 80010180 <d_0_22>
    80000d6e:	00c1                	add	ra,ra,16
    80000d70:	0010a42f          	amoadd.w	s0,ra,(ra)

0000000080000d74 <_l75>:
    80000d74:	c21008d3          	fcvt.wu.d	a7,ft0,rne

0000000080000d78 <_l76>:
    80000d78:	104cee73          	csrrs	t3,sie,25

0000000080000d7c <_l77>:
    80000d7c:	0003fe97          	auipc	t4,0x3f
    80000d80:	3b4e8e93          	add	t4,t4,948 # 80040130 <d_3_17>
    80000d84:	ffe00a37          	lui	s4,0xffe00
    80000d88:	014eceb3          	xor	t4,t4,s4
    80000d8c:	014eb387          	fld	ft7,20(t4)

0000000080000d90 <_l78>:
    80000d90:	01479493          	sll	s1,a5,0x14

0000000080000d94 <_l79>:
    80000d94:	e00006d3          	fmv.x.w	a3,ft0

0000000080000d98 <_l80>:
    80000d98:	087096d3          	fsub.s	fa3,ft1,ft7,rtz

0000000080000d9c <_l81>:
    80000d9c:	07674c63          	blt	a4,s6,80000e14 <_l95>

0000000080000da0 <_l82>:
    80000da0:	06dcfa63          	bgeu	s9,a3,80000e14 <_l95>

0000000080000da4 <_l83>:
    80000da4:	61ad9acb          	fnmsub.s	fs5,fs11,fs10,fa2,rtz

0000000080000da8 <_l84>:
    80000da8:	41350b3b          	subw	s6,a0,s3

0000000080000dac <_l85>:
    80000dac:	03483153          	fadd.d	ft2,fa6,fs4,rup

0000000080000db0 <_l86>:
    80000db0:	0001fd17          	auipc	s10,0x1f
    80000db4:	370d0d13          	add	s10,s10,880 # 80020120 <d_1_16>
    80000db8:	0d61                	add	s10,s10,24
    80000dba:	e1ed3aaf          	amomaxu.d	s5,t5,(s10)

0000000080000dbe <_l87>:
    80000dbe:	407153b3          	sra	t2,sp,t2

0000000080000dc2 <_l88>:
    80000dc2:	75ecb297          	auipc	t0,0x75ecb

0000000080000dc6 <_l89>:
    80000dc6:	0000fe17          	auipc	t3,0xf
    80000dca:	2cae0e13          	add	t3,t3,714 # 80010090 <d_0_7>
    80000dce:	1e31                	add	t3,t3,-20
    80000dd0:	ffe00137          	lui	sp,0xffe00
    80000dd4:	002e4e33          	xor	t3,t3,sp
    80000dd8:	802e27af          	amomin.w	a5,sp,(t3)

0000000080000ddc <_l90>:
    80000ddc:	0002fc97          	auipc	s9,0x2f
    80000de0:	364c8c93          	add	s9,s9,868 # 80030140 <d_2_18>
    80000de4:	8ce6                	mv	s9,s9
    80000de6:	40ccb6af          	amoor.d	a3,a2,(s9)

0000000080000dea <_l91>:
    80000dea:	0005f817          	auipc	a6,0x5f
    80000dee:	3e680813          	add	a6,a6,998 # 800601d0 <d_5_27>
    80000df2:	01e82e27          	fsw	ft10,28(a6)

0000000080000df6 <_l92>:
    80000df6:	0003f317          	auipc	t1,0x3f
    80000dfa:	35a30313          	add	t1,t1,858 # 80040150 <d_3_19>
    80000dfe:	0371                	add	t1,t1,28
    80000e00:	ffe00db7          	lui	s11,0xffe00
    80000e04:	01b34333          	xor	t1,t1,s11
    80000e08:	61b3252f          	amoand.w	a0,s11,(t1)

0000000080000e0c <_l93>:
    80000e0c:	c0279ed3          	fcvt.l.s	t4,fa5,rtz

0000000080000e10 <_l94>:
    80000e10:	03e8e33b          	remw	t1,a7,t5

0000000080000e14 <_l95>:
    80000e14:	925b10cb          	fnmsub.d	ft1,fs6,ft5,fs2,rtz

0000000080000e18 <_l96>:
    80000e18:	14205573          	csrrw	a0,scause,0

0000000080000e1c <_l97>:
    80000e1c:	801aa293          	slti	t0,s5,-2047

0000000080000e20 <_l98>:
    80000e20:	22099753          	fsgnjn.d	fa4,fs3,ft0

0000000080000e24 <_l99>:
    80000e24:	0004f313          	and	t1,s1,0

0000000080000e28 <_l100>:
    80000e28:	238384d3          	fsgnj.d	fs1,ft7,fs8

0000000080000e2c <_l101>:
    80000e2c:	00000073          	ecall
	...

0000000080000e32 <_end_main>:
	...

Disassembly of section .tohost:

0000000080001000 <tohost>:
	...

0000000080001040 <fromhost>:
	...

Disassembly of section .data:

0000000080002000 <begin_signature>:
	...

0000000080002008 <reg_x1_output>:
	...

0000000080002010 <reg_x2_output>:
	...

0000000080002018 <reg_x3_output>:
	...

0000000080002020 <reg_x4_output>:
	...

0000000080002028 <reg_x5_output>:
	...

0000000080002030 <reg_x6_output>:
	...

0000000080002038 <reg_x7_output>:
	...

0000000080002040 <reg_x8_output>:
	...

0000000080002048 <reg_x9_output>:
	...

0000000080002050 <reg_x10_output>:
	...

0000000080002058 <reg_x11_output>:
	...

0000000080002060 <reg_x12_output>:
	...

0000000080002068 <reg_x13_output>:
	...

0000000080002070 <reg_x14_output>:
	...

0000000080002078 <reg_x15_output>:
	...

0000000080002080 <reg_x16_output>:
	...

0000000080002088 <reg_x17_output>:
	...

0000000080002090 <reg_x18_output>:
	...

0000000080002098 <reg_x19_output>:
	...

00000000800020a0 <reg_x20_output>:
	...

00000000800020a8 <reg_x21_output>:
	...

00000000800020b0 <reg_x22_output>:
	...

00000000800020b8 <reg_x23_output>:
	...

00000000800020c0 <reg_x24_output>:
	...

00000000800020c8 <reg_x25_output>:
	...

00000000800020d0 <reg_x26_output>:
	...

00000000800020d8 <reg_x27_output>:
	...

00000000800020e0 <reg_x28_output>:
	...

00000000800020e8 <reg_x29_output>:
	...

00000000800020f0 <reg_x30_output>:
	...

00000000800020f8 <reg_x31_output>:
	...

0000000080002100 <freg_output_data>:
	...

0000000080002108 <reg_f1_output>:
	...

0000000080002110 <reg_f2_output>:
	...

0000000080002118 <reg_f3_output>:
	...

0000000080002120 <reg_f4_output>:
	...

0000000080002128 <reg_f5_output>:
	...

0000000080002130 <reg_f6_output>:
	...

0000000080002138 <reg_f7_output>:
	...

0000000080002140 <reg_f8_output>:
	...

0000000080002148 <reg_f9_output>:
	...

0000000080002150 <reg_f10_output>:
	...

0000000080002158 <reg_f11_output>:
	...

0000000080002160 <reg_f12_output>:
	...

0000000080002168 <reg_f13_output>:
	...

0000000080002170 <reg_f14_output>:
	...

0000000080002178 <reg_f15_output>:
	...

0000000080002180 <reg_f16_output>:
	...

0000000080002188 <reg_f17_output>:
	...

0000000080002190 <reg_f18_output>:
	...

0000000080002198 <reg_f19_output>:
	...

00000000800021a0 <reg_f20_output>:
	...

00000000800021a8 <reg_f21_output>:
	...

00000000800021b0 <reg_f22_output>:
	...

00000000800021b8 <reg_f23_output>:
	...

00000000800021c0 <reg_f24_output>:
	...

00000000800021c8 <reg_f25_output>:
	...

00000000800021d0 <reg_f26_output>:
	...

00000000800021d8 <reg_f27_output>:
	...

00000000800021e0 <reg_f28_output>:
	...

00000000800021e8 <reg_f29_output>:
	...

00000000800021f0 <reg_f30_output>:
	...

00000000800021f8 <reg_f31_output>:
	...

0000000080002200 <csr_output_data>:
	...

0000000080002208 <uie_output>:
	...

0000000080002210 <utvec_output>:
	...

0000000080002218 <uscratch_output>:
	...

0000000080002220 <uepc_output>:
	...

0000000080002228 <ucause_output>:
	...

0000000080002230 <utval_output>:
	...

0000000080002238 <uip_output>:
	...

0000000080002240 <fflags_output>:
	...

0000000080002248 <frm_output>:
	...

0000000080002250 <fcsr_output>:
	...

0000000080002258 <sstatus_output>:
	...

0000000080002260 <sedeleg_output>:
	...

0000000080002268 <sideleg_output>:
	...

0000000080002270 <sie_output>:
	...

0000000080002278 <stvec_output>:
	...

0000000080002280 <scounteren_output>:
	...

0000000080002288 <sscratch_output>:
	...

0000000080002290 <sepc_output>:
	...

0000000080002298 <scause_output>:
	...

00000000800022a0 <stval_output>:
	...

00000000800022a8 <sip_output>:
	...

00000000800022b0 <satp_output>:
	...

00000000800022b8 <mhartid_output>:
	...

00000000800022c0 <mstatus_output>:
	...

00000000800022c8 <medeleg_output>:
	...

00000000800022d0 <mideleg_output>:
	...

00000000800022d8 <mie_output>:
	...

00000000800022e0 <mtvec_output>:
	...

00000000800022e8 <mcounteren_output>:
	...

00000000800022f0 <mscratch_output>:
	...

00000000800022f8 <mepc_output>:
	...

0000000080002300 <mcause_output>:
	...

0000000080002308 <mtval_output>:
	...

0000000080002310 <mip_output>:
	...

0000000080002318 <pmpcfg0_output>:
	...

0000000080002320 <pmpcfg1_output>:
	...

0000000080002328 <pmpcfg2_output>:
	...

0000000080002330 <pmpcfg3_output>:
	...

0000000080002338 <pmpaddr0_output>:
	...

0000000080002340 <pmpaddr1_output>:
	...

0000000080002348 <pmpaddr2_output>:
	...

0000000080002350 <pmpaddr3_output>:
	...

0000000080002358 <pmpaddr4_output>:
	...

0000000080002360 <pmpaddr5_output>:
	...

0000000080002368 <pmpaddr6_output>:
	...

0000000080002370 <pmpaddr7_output>:
	...

0000000080002378 <pmpaddr8_output>:
	...

0000000080002380 <pmpaddr9_output>:
	...

0000000080002388 <pmpaddr10_output>:
	...

0000000080002390 <pmpaddr11_output>:
	...

0000000080002398 <pmpaddr12_output>:
	...

00000000800023a0 <pmpaddr13_output>:
	...

00000000800023a8 <pmpaddr14_output>:
	...

00000000800023b0 <pmpaddr15_output>:
	...

00000000800023b8 <mcycle_output>:
	...

00000000800023c0 <minstret_output>:
	...

00000000800023c8 <mcycleh_output>:
	...

00000000800023d0 <minstreth_output>:
	...

Disassembly of section .data.random0:

0000000080010000 <_random_data0>:
    80010000:	15b5                	add	a1,a1,-19
    80010002:	6b35                	lui	s6,0xd
    80010004:	0e18                	add	a4,sp,784
    80010006:	a292                	fsd	ft4,320(sp)
    80010008:	517acbb3          	.insn	4, 0x517acbb3
    8001000c:	1024a7bb          	.insn	4, 0x1024a7bb
    80010010:	452e                	lw	a0,200(sp)
    80010012:	58df 24cc c755      	.insn	6, 0xc75524cc58df
    80010018:	64ee7d3b          	.insn	4, 0x64ee7d3b
    8001001c:	7d70                	ld	a2,248(a0)
    8001001e:	ffdf        	.insn	6, 0x48748cdeffdf

0000000080010020 <d_0_0>:
    80010020:	8cde                	mv	s9,s7
    80010022:	4874                	lw	a3,84(s0)
    80010024:	cf80                	sw	s0,24(a5)
    80010026:	4566                	lw	a0,88(sp)
    80010028:	8d0a                	mv	s10,sp
    8001002a:	21f62953          	fsgnjx.s	fs2,fa2,ft11
    8001002e:	f3fa                	sd	t5,480(sp)

0000000080010030 <d_0_1>:
    80010030:	68a2                	ld	a7,8(sp)
    80010032:	c081                	beqz	s1,80010032 <d_0_1+0x2>
    80010034:	dd65                	beqz	a0,8001002c <d_0_0+0xc>
    80010036:	3c3cb58b          	.insn	4, 0x3c3cb58b
    8001003a:	3d78f4c7          	.insn	4, 0x3d78f4c7
    8001003e:	1cc2                	sll	s9,s9,0x30

0000000080010040 <d_0_2>:
    80010040:	df266f53          	.insn	4, 0xdf266f53
    80010044:	95f9                	sra	a1,a1,0x3e
    80010046:	a5aa                	fsd	fa0,200(sp)
    80010048:	feee369b          	.insn	4, 0xfeee369b
    8001004c:	2451                	addw	s0,s0,20
    8001004e:	          	.insn	4, 0x9bf0c00f

0000000080010050 <d_0_3>:
    80010050:	9bf0                	.insn	2, 0x9bf0
    80010052:	ba9c                	fsd	fa5,48(a3)
    80010054:	ba2e                	fsd	fa1,304(sp)
    80010056:	81de                	mv	gp,s7
    80010058:	17cc                	add	a1,sp,996
    8001005a:	fedf b1a1 266f      	.insn	6, 0x266fb1a1fedf

0000000080010060 <d_0_4>:
    80010060:	bc6e                	fsd	fs11,56(sp)
    80010062:	4dda                	lw	s11,148(sp)
    80010064:	2205                	addw	tp,tp,1 # 1 <_start-0x7fffffff>
    80010066:	ccb6                	sw	a3,88(sp)
    80010068:	4699                	li	a3,6
    8001006a:	b638                	fsd	fa4,104(a2)
    8001006c:	8555                	sra	a0,a0,0x15
    8001006e:	f7ee                	sd	s11,488(sp)

0000000080010070 <d_0_5>:
    80010070:	101a                	c.slli	zero,0x26
    80010072:	fd56ab3f 91ace298 	.insn	8, 0x91ace298fd56ab3f
    8001007a:	136e                	sll	t1,t1,0x3b
    8001007c:	6125                	add	sp,sp,96
    8001007e:	1039                	c.nop	-18

0000000080010080 <d_0_6>:
    80010080:	aba86f77          	.insn	4, 0xaba86f77
    80010084:	3406                	fld	fs0,96(sp)
    80010086:	25a5                	addw	a1,a1,9
    80010088:	faab012b          	.insn	4, 0xfaab012b
    8001008c:	0e894c6b          	.insn	4, 0x0e894c6b

0000000080010090 <d_0_7>:
    80010090:	4f4bf907          	.insn	4, 0x4f4bf907
    80010094:	16fc                	add	a5,sp,876
    80010096:	3ba8                	fld	fa0,112(a5)
    80010098:	8120                	.insn	2, 0x8120
    8001009a:	049e                	sll	s1,s1,0x7
    8001009c:	07b4                	add	a3,sp,968
    8001009e:	a89a                	fsd	ft6,80(sp)

00000000800100a0 <d_0_8>:
    800100a0:	13c6                	sll	t2,t2,0x31
    800100a2:	607733cb          	fnmsub.s	ft7,fa4,ft7,fa2,rup
    800100a6:	aae9                	j	80010280 <_end_data0+0x80>
    800100a8:	c66bdc5b          	.insn	4, 0xc66bdc5b
    800100ac:	9bc5                	and	a5,a5,-15
    800100ae:	80d9                	srl	s1,s1,0x16

00000000800100b0 <d_0_9>:
    800100b0:	b17ebc87          	fld	fs9,-1257(t4)
    800100b4:	c176                	sw	t4,128(sp)
    800100b6:	654d                	lui	a0,0x13
    800100b8:	d79f 6bf3 59ad      	.insn	6, 0x59ad6bf3d79f
    800100be:	9fa1                	addw	a5,a5,s0

00000000800100c0 <d_0_10>:
    800100c0:	110a                	sll	sp,sp,0x22
    800100c2:	d74d                	beqz	a4,8001006c <d_0_4+0xc>
    800100c4:	c93050ab          	.insn	4, 0xc93050ab
    800100c8:	0341                	add	t1,t1,16
    800100ca:	4309                	li	t1,2
    800100cc:	8685                	sra	a3,a3,0x1
    800100ce:	          	.insn	4, 0xf6989ee7

00000000800100d0 <d_0_11>:
    800100d0:	f698                	sd	a4,40(a3)
    800100d2:	8d0a                	mv	s10,sp
    800100d4:	cf99                	beqz	a5,800100f2 <d_0_13+0x2>
    800100d6:	5628                	lw	a0,104(a2)
    800100d8:	3e6a                	fld	ft8,184(sp)
    800100da:	24d1ab2f          	amoxor.w.aq	s6,a3,(gp)
    800100de:	c42a                	sw	a0,8(sp)

00000000800100e0 <d_0_12>:
    800100e0:	a5de2a53          	.insn	4, 0xa5de2a53
    800100e4:	15258627          	.insn	4, 0x15258627
    800100e8:	3031                	.insn	2, 0x3031
    800100ea:	3cf9                	addw	s9,s9,-2
    800100ec:	e714                	sd	a3,8(a4)
    800100ee:	a021                	j	800100f6 <d_0_13+0x6>

00000000800100f0 <d_0_13>:
    800100f0:	9cee                	add	s9,s9,s11
    800100f2:	7ef731d3          	.insn	4, 0x7ef731d3
    800100f6:	709112ff d8d9300b 	.insn	12, 0x0635a309d8d9300b709112ff
    800100fe:	 

0000000080010100 <d_0_14>:
    80010100:	0635                	add	a2,a2,13
    80010102:	7c29                	lui	s8,0xfffea
    80010104:	7248                	ld	a0,160(a2)
    80010106:	cc01                	beqz	s0,8001011e <d_0_15+0xe>
    80010108:	5be1                	li	s7,-8
    8001010a:	c290                	sw	a2,0(a3)
    8001010c:	9ad9                	and	a3,a3,-10
    8001010e:	95d1                	sra	a1,a1,0x34

0000000080010110 <d_0_15>:
    80010110:	b305                	j	8000fe30 <end_signature+0xda50>
    80010112:	ff61                	bnez	a4,800100ea <d_0_12+0xa>
    80010114:	a811                	j	80010128 <d_0_16+0x8>
    80010116:	26ff7e97          	auipc	t4,0x26ff7
    8001011a:	35bc                	fld	fa5,104(a1)
    8001011c:	0222                	sll	tp,tp,0x8
    8001011e:	          	csrrw	s10,0x491,24

0000000080010120 <d_0_16>:
    80010120:	491c                	lw	a5,16(a0)
    80010122:	5f94                	lw	a3,56(a5)
    80010124:	12b2                	sll	t0,t0,0x2c
    80010126:	88e5                	and	s1,s1,25
    80010128:	3e86887b          	.insn	4, 0x3e86887b
    8001012c:	1222                	sll	tp,tp,0x28
    8001012e:	244d                	addw	s0,s0,19

0000000080010130 <d_0_17>:
    80010130:	59a6                	lw	s3,104(sp)
    80010132:	b036f2e7          	.insn	4, 0xb036f2e7
    80010136:	f1d5                	bnez	a1,800100da <d_0_11+0xa>
    80010138:	c8ac                	sw	a1,80(s1)
    8001013a:	7eba                	ld	t4,424(sp)
    8001013c:	cd6e                	sw	s11,152(sp)
    8001013e:	3afe                	fld	fs5,504(sp)

0000000080010140 <d_0_18>:
    80010140:	891d                	and	a0,a0,7
    80010142:	2699                	addw	a3,a3,6 # 7c736006 <_start-0x38c9ffa>
    80010144:	bde8f4cb          	.insn	4, 0xbde8f4cb
    80010148:	a7a2                	fsd	fs0,456(sp)
    8001014a:	ce024a4b          	.insn	4, 0xce024a4b
    8001014e:	ce10                	sw	a2,24(a2)

0000000080010150 <d_0_19>:
    80010150:	4804                	lw	s1,16(s0)
    80010152:	7294                	ld	a3,32(a3)
    80010154:	ee90                	sd	a2,24(a3)
    80010156:	9df4                	.insn	2, 0x9df4
    80010158:	d8ae                	sw	a1,112(sp)
    8001015a:	e14d                	bnez	a0,800101fc <d_0_27+0x2c>
    8001015c:	a639                	j	8001046a <_end_data0+0x26a>
    8001015e:	b1c0                	fsd	fs0,160(a1)

0000000080010160 <d_0_20>:
    80010160:	a718                	fsd	fa4,8(a4)
    80010162:	e0f3264f          	fnmadd.s	fa2,ft6,fa5,ft8,rdn
    80010166:	5949                	li	s2,-14
    80010168:	d746                	sw	a7,172(sp)
    8001016a:	8564                	.insn	2, 0x8564
    8001016c:	1bb8                	add	a4,sp,504
    8001016e:	          	.insn	4, 0x715cb30b

0000000080010170 <d_0_21>:
    80010170:	715c                	ld	a5,160(a0)
    80010172:	ba5a                	fsd	fs6,304(sp)
    80010174:	7540                	ld	s0,168(a0)
    80010176:	6885                	lui	a7,0x1
    80010178:	e79a                	sd	t1,456(sp)
    8001017a:	f4c5                	bnez	s1,80010122 <d_0_16+0x2>
    8001017c:	6c3c                	ld	a5,88(s0)
    8001017e:	a17c                	fsd	fa5,192(a0)

0000000080010180 <d_0_22>:
    80010180:	2ada                	fld	fs5,400(sp)
    80010182:	db71                	beqz	a4,80010156 <d_0_19+0x6>
    80010184:	90990847          	fmsub.s	fa6,fs2,fs1,fs2,rne
    80010188:	61f4                	ld	a3,192(a1)
    8001018a:	7fbaa6db          	.insn	4, 0x7fbaa6db
    8001018e:	ee72                	sd	t3,280(sp)

0000000080010190 <d_0_23>:
    80010190:	776d                	lui	a4,0xffffb
    80010192:	c0b8                	sw	a4,64(s1)
    80010194:	61d9                	lui	gp,0x16
    80010196:	72d8                	ld	a4,160(a3)
    80010198:	a29c                	fsd	fa5,0(a3)
    8001019a:	ae18                	fsd	fa4,24(a2)
    8001019c:	29fd                	addw	s3,s3,31
    8001019e:	          	.insn	4, 0x5ecf9c47

00000000800101a0 <d_0_24>:
    800101a0:	c97c5ecf          	fnmadd.s	ft9,fs8,fs7,fs9,unknown
    800101a4:	e41f ef6f e236      	.insn	6, 0xe236ef6fe41f
    800101aa:	bc26                	fsd	fs1,56(sp)
    800101ac:	baad7bfb          	.insn	4, 0xbaad7bfb

00000000800101b0 <d_0_25>:
    800101b0:	cb4a                	sw	s2,148(sp)
    800101b2:	c12d                	beqz	a0,80010214 <_end_data0+0x14>
    800101b4:	c2aa                	sw	a0,68(sp)
    800101b6:	143d                	add	s0,s0,-17
    800101b8:	e50454c3          	.insn	4, 0xe50454c3
    800101bc:	2785                	addw	a5,a5,1
    800101be:	1329                	add	t1,t1,-22

00000000800101c0 <d_0_26>:
    800101c0:	195e                	sll	s2,s2,0x37
    800101c2:	c374                	sw	a3,68(a4)
    800101c4:	b326                	fsd	fs1,416(sp)
    800101c6:	9a52ee1b          	.insn	4, 0x9a52ee1b
    800101ca:	a305                	j	800106ea <_end_data0+0x4ea>
    800101cc:	5ac6                	lw	s5,112(sp)
    800101ce:	3756                	fld	fa4,368(sp)

00000000800101d0 <d_0_27>:
    800101d0:	b390                	fsd	fa2,32(a5)
    800101d2:	3ef1390b          	.insn	4, 0x3ef1390b
    800101d6:	dec1                	beqz	a3,8001016e <d_0_20+0xe>
    800101d8:	9b99                	and	a5,a5,-26
    800101da:	4236                	lw	tp,76(sp)
    800101dc:	3da1                	addw	s11,s11,-24 # ffffffffffdfffe8 <_end+0xffffffff7fd9fde8>
    800101de:	84e7c96b          	.insn	4, 0x84e7c96b
    800101e2:	fe76                	sd	t4,312(sp)
    800101e4:	bab5                	j	8000fb60 <end_signature+0xd780>
    800101e6:	bfda                	fsd	fs6,504(sp)
    800101e8:	d479                	beqz	s0,800101b6 <d_0_25+0x6>
    800101ea:	d662a427          	fsw	ft6,-664(t0) # f5ecbb2a <_end+0x75e6b92a>
    800101ee:	e414                	sd	a3,8(s0)
    800101f0:	29c02667          	.insn	4, 0x29c02667
    800101f4:	9794                	.insn	2, 0x9794
    800101f6:	70c6                	ld	ra,112(sp)
    800101f8:	44bc                	lw	a5,72(s1)
    800101fa:	aa34                	fsd	fa3,80(a2)
    800101fc:	Address 0x800101fc is out of bounds.


Disassembly of section .data.random1:

0000000080020000 <_random_data1>:
    80020000:	4bd8                	lw	a4,20(a5)
    80020002:	d6efe6e7          	.insn	4, 0xd6efe6e7
    80020006:	fcbd                	bnez	s1,8001ff84 <_end_data0+0xfd84>
    80020008:	7c2d                	lui	s8,0xfffeb
    8002000a:	e199                	bnez	a1,80020010 <_random_data1+0x10>
    8002000c:	a5d6                	fsd	fs5,200(sp)
    8002000e:	5aca8a0f          	.insn	4, 0x5aca8a0f
    80020012:	bd7275c7          	.insn	4, 0xbd7275c7
    80020016:	fd70                	sd	a2,248(a0)
    80020018:	5484                	lw	s1,40(s1)
    8002001a:	cae6                	sw	s9,84(sp)
    8002001c:	931a                	add	t1,t1,t1
    8002001e:	c1c6                	sw	a7,192(sp)

0000000080020020 <d_1_0>:
    80020020:	092e                	sll	s2,s2,0xb
    80020022:	da52                	sw	s4,52(sp)
    80020024:	c675                	beqz	a2,80020110 <d_1_15>
    80020026:	6ddc                	ld	a5,152(a1)
    80020028:	cdb4                	sw	a3,88(a1)
    8002002a:	ca05                	beqz	a2,8002005a <d_1_3+0xa>
    8002002c:	81e5                	srl	a1,a1,0x19
    8002002e:	          	lui	s11,0xdcccf

0000000080020030 <d_1_1>:
    80020030:	dccc                	sw	a1,60(s1)
    80020032:	029f 709b 5d6a      	.insn	6, 0x5d6a709b029f
    80020038:	e780                	sd	s0,8(a5)
    8002003a:	151a                	sll	a0,a0,0x26
    8002003c:	e804                	sd	s1,16(s0)
    8002003e:	587e                	lw	a6,252(sp)

0000000080020040 <d_1_2>:
    80020040:	04d5                	add	s1,s1,21
    80020042:	99a5                	and	a1,a1,-23
    80020044:	aedc                	fsd	fa5,152(a3)
    80020046:	3ee9                	addw	t4,t4,-6 # ffffffffa7007110 <_end+0xffffffff26fa6f10>
    80020048:	5005b927          	fsd	ft0,1298(a1)
    8002004c:	6c9d                	lui	s9,0x7
    8002004e:	7136                	ld	sp,360(sp)

0000000080020050 <d_1_3>:
    80020050:	1cc1                	add	s9,s9,-16 # 6ff0 <_start-0x7fff9010>
    80020052:	9a94                	.insn	2, 0x9a94
    80020054:	7314                	ld	a3,32(a4)
    80020056:	ea060b53          	.insn	4, 0xea060b53
    8002005a:	6946                	ld	s2,80(sp)
    8002005c:	2a54                	fld	fa3,144(a2)
    8002005e:	9ca9                	addw	s1,s1,a0

0000000080020060 <d_1_4>:
    80020060:	3ee1                	addw	t4,t4,-8
    80020062:	9c59                	.insn	2, 0x9c59
    80020064:	b7a5                	j	8001ffcc <_end_data0+0xfdcc>
    80020066:	f050                	sd	a2,160(s0)
    80020068:	8100                	.insn	2, 0x8100
    8002006a:	1e8ae3d3          	.insn	4, 0x1e8ae3d3
    8002006e:	e3c8                	sd	a0,128(a5)

0000000080020070 <d_1_5>:
    80020070:	ea46                	sd	a7,272(sp)
    80020072:	4e7a                	lw	t3,156(sp)
    80020074:	e46a                	sd	s10,8(sp)
    80020076:	cabd                	beqz	a3,800200ec <d_1_12+0xc>
    80020078:	35f6                	fld	fa1,376(sp)
    8002007a:	927386ef          	jal	a3,7ff589a0 <_start-0xa7660>
    8002007e:	          	addw	a7,a5,439

0000000080020080 <d_1_6>:
    80020080:	1cbf1b77          	.insn	4, 0x1cbf1b77
    80020084:	6df9                	lui	s11,0x1e
    80020086:	e961                	bnez	a0,80020156 <d_1_19+0x6>
    80020088:	d7b145d3          	.insn	4, 0xd7b145d3
    8002008c:	8cdd                	or	s1,s1,a5
    8002008e:	f729                	bnez	a4,8001ffd8 <_end_data0+0xfdd8>

0000000080020090 <d_1_7>:
    80020090:	f132                	sd	a2,160(sp)
    80020092:	7984                	ld	s1,48(a1)
    80020094:	8689                	sra	a3,a3,0x2
    80020096:	6515f233          	.insn	4, 0x6515f233
    8002009a:	d802                	sw	zero,48(sp)
    8002009c:	d9fe                	sw	t6,240(sp)
    8002009e:	          	.insn	4, 0x2a9e7ce7

00000000800200a0 <d_1_8>:
    800200a0:	2a9e                	fld	fs5,448(sp)
    800200a2:	feea5b47          	.insn	4, 0xfeea5b47
    800200a6:	eb64                	sd	s1,208(a4)
    800200a8:	4c60                	lw	s0,92(s0)
    800200aa:	0d895cf7          	.insn	4, 0x0d895cf7
    800200ae:	f48e                	sd	gp,104(sp)

00000000800200b0 <d_1_9>:
    800200b0:	6f29                	lui	t5,0xa
    800200b2:	580805b7          	lui	a1,0x58080
    800200b6:	8ce8                	.insn	2, 0x8ce8
    800200b8:	5eed5413          	.insn	4, 0x5eed5413
    800200bc:	9bc6                	add	s7,s7,a7
    800200be:	e06e                	sd	s11,0(sp)

00000000800200c0 <d_1_10>:
    800200c0:	2856                	fld	fa6,336(sp)
    800200c2:	b014429b          	.insn	4, 0xb014429b
    800200c6:	7ae629b7          	lui	s3,0x7ae62
    800200ca:	1b0d                	add	s6,s6,-29 # cfe3 <_start-0x7fff301d>
    800200cc:	af8bbd27          	fsd	fs8,-1286(s7)

00000000800200d0 <d_1_11>:
    800200d0:	969f 64da 163a      	.insn	6, 0x163a64da969f
    800200d6:	66ca                	ld	a3,144(sp)
    800200d8:	0922                	sll	s2,s2,0x8
    800200da:	e51d                	bnez	a0,80020108 <d_1_14+0x8>
    800200dc:	f620                	sd	s0,104(a2)
    800200de:	83f1                	srl	a5,a5,0x1c

00000000800200e0 <d_1_12>:
    800200e0:	e210                	sd	a2,0(a2)
    800200e2:	cf40                	sw	s0,28(a4)
    800200e4:	885d                	and	s0,s0,23
    800200e6:	3d3e                	fld	fs10,488(sp)
    800200e8:	041c                	add	a5,sp,512
    800200ea:	e3d24303          	lbu	t1,-451(tp) # fffffffffffffe3d <_end+0xffffffff7ff9fc3d>
    800200ee:	7908                	ld	a0,48(a0)

00000000800200f0 <d_1_13>:
    800200f0:	4cdc                	lw	a5,28(s1)
    800200f2:	a106                	fsd	ft1,128(sp)
    800200f4:	b3c0                	fsd	fs0,160(a5)
    800200f6:	32e0                	fld	fs0,224(a3)
    800200f8:	9ad8                	.insn	2, 0x9ad8
    800200fa:	42cd                	li	t0,19
    800200fc:	1d59                	add	s10,s10,-10
    800200fe:	1042                	c.slli	zero,0x30

0000000080020100 <d_1_14>:
    80020100:	207f 1e17 c06b 69aa 	.insn	14, 0xc2c3b3fd0ff269aac06b1e17207f
    80020108:	0ff2 b3fd c2c3 
    8002010e:	de7c                	sw	a5,124(a2)

0000000080020110 <d_1_15>:
    80020110:	549233d7          	.insn	4, 0x549233d7
    80020114:	bd12                	fsd	ft4,184(sp)
    80020116:	a7c2                	fsd	fa6,456(sp)
    80020118:	3901                	addw	s2,s2,-32
    8002011a:	9778                	.insn	2, 0x9778
    8002011c:	b01f1993          	.insn	4, 0xb01f1993

0000000080020120 <d_1_16>:
    80020120:	1791                	add	a5,a5,-28
    80020122:	e2d2                	sd	s4,320(sp)
    80020124:	1762                	sll	a4,a4,0x38
    80020126:	6125                	add	sp,sp,96
    80020128:	f1f9                	bnez	a1,800200ee <d_1_12+0xe>
    8002012a:	b81c                	fsd	fa5,48(s0)
    8002012c:	f6752d0f          	.insn	4, 0xf6752d0f

0000000080020130 <d_1_17>:
    80020130:	8eb2                	mv	t4,a2
    80020132:	5c4a                	lw	s8,176(sp)
    80020134:	f0b6                	sd	a3,96(sp)
    80020136:	0810                	add	a2,sp,16
    80020138:	e14d                	bnez	a0,800201da <d_1_27+0xa>
    8002013a:	552a347b          	.insn	4, 0x552a347b
    8002013e:	a550                	fsd	fa2,136(a0)

0000000080020140 <d_1_18>:
    80020140:	0ad2afb7          	lui	t6,0xad2a
    80020144:	7264e60f          	.insn	4, 0x7264e60f
    80020148:	b0fda163          	.insn	4, 0xb0fda163
    8002014c:	fe35                	bnez	a2,800200c8 <d_1_10+0x8>
    8002014e:	          	fsd	ft4,1058(s8) # fffffffffffeb422 <_end+0xffffffff7ff8b222>

0000000080020150 <d_1_19>:
    80020150:	424c                	lw	a1,4(a2)
    80020152:	e281                	bnez	a3,80020152 <d_1_19+0x2>
    80020154:	3311                	addw	t1,t1,-28
    80020156:	aa49                	j	800202e8 <_end_data1+0xe8>
    80020158:	14c9                	add	s1,s1,-14
    8002015a:	a38c                	fsd	fa1,0(a5)
    8002015c:	7c48                	ld	a0,184(s0)
    8002015e:	d026                	sw	s1,32(sp)

0000000080020160 <d_1_20>:
    80020160:	7d58                	ld	a4,184(a0)
    80020162:	aad5                	j	80020356 <_end_data1+0x156>
    80020164:	d605                	beqz	a2,8002008c <d_1_6+0xc>
    80020166:	4d54                	lw	a3,28(a0)
    80020168:	abd9                	j	8002073e <_end_data1+0x53e>
    8002016a:	3ea8                	fld	fa0,120(a3)
    8002016c:	ea10                	sd	a2,16(a2)
    8002016e:	7e65                	lui	t3,0xffff9

0000000080020170 <d_1_21>:
    80020170:	ca05                	beqz	a2,800201a0 <d_1_24>
    80020172:	6990                	ld	a2,16(a1)
    80020174:	9851                	and	s0,s0,-12
    80020176:	5a85c9e7          	.insn	4, 0x5a85c9e7
    8002017a:	c181                	beqz	a1,8002017a <d_1_21+0xa>
    8002017c:	26ed                	addw	a3,a3,27
    8002017e:	e1e5                	bnez	a1,8002025e <_end_data1+0x5e>

0000000080020180 <d_1_22>:
    80020180:	2475                	addw	s0,s0,29
    80020182:	228d                	addw	t0,t0,3
    80020184:	48d1                	li	a7,20
    80020186:	b35a                	fsd	fs6,416(sp)
    80020188:	9cf1                	.insn	2, 0x9cf1
    8002018a:	a63c                	fsd	fa5,72(a2)
    8002018c:	3fb8add3          	.insn	4, 0x3fb8add3

0000000080020190 <d_1_23>:
    80020190:	868e                	mv	a3,gp
    80020192:	b7799903          	lh	s2,-1161(s3) # 7ae61b77 <_start-0x519e489>
    80020196:	7cf56e4b          	.insn	4, 0x7cf56e4b
    8002019a:	3438                	fld	fa4,104(s0)
    8002019c:	ef52                	sd	s4,408(sp)
    8002019e:	d7c6                	sw	a7,236(sp)

00000000800201a0 <d_1_24>:
    800201a0:	027d                	add	tp,tp,31 # 1f <_start-0x7fffffe1>
    800201a2:	fddee8af          	.insn	4, 0xfddee8af
    800201a6:	41c954c3          	fmadd.s	fs1,fs2,ft8,fs0,unknown
    800201aa:	4c758f57          	.insn	4, 0x4c758f57
    800201ae:	174c                	add	a1,sp,932

00000000800201b0 <d_1_25>:
    800201b0:	98ad                	and	s1,s1,-21
    800201b2:	12da                	sll	t0,t0,0x36
    800201b4:	29c11e6b          	.insn	4, 0x29c11e6b
    800201b8:	fc755ebb          	.insn	4, 0xfc755ebb
    800201bc:	2e66                	fld	ft8,88(sp)
    800201be:	49c5                	li	s3,17

00000000800201c0 <d_1_26>:
    800201c0:	d710                	sw	a2,40(a4)
    800201c2:	d4ff2133          	.insn	4, 0xd4ff2133
    800201c6:	8cbd                	xor	s1,s1,a5
    800201c8:	9521                	sra	a0,a0,0x28
    800201ca:	68fd                	lui	a7,0x1f
    800201cc:	ecfd                	bnez	s1,800202ca <_end_data1+0xca>
    800201ce:	0fee                	sll	t6,t6,0x1b

00000000800201d0 <d_1_27>:
    800201d0:	a439fa37          	lui	s4,0xa439f
    800201d4:	7aa9                	lui	s5,0xfffea
    800201d6:	255e                	fld	fa0,464(sp)
    800201d8:	92bd                	srl	a3,a3,0x2f
    800201da:	77889bc7          	.insn	4, 0x77889bc7
    800201de:	4c1f 1f11 38c7      	.insn	6, 0x38c71f114c1f
    800201e4:	021c                	add	a5,sp,256
    800201e6:	5839                	li	a6,-18
    800201e8:	41f4                	lw	a3,68(a1)
    800201ea:	0772fb83          	.insn	4, 0x0772fb83
    800201ee:	ecb9                	bnez	s1,8002024c <_end_data1+0x4c>
    800201f0:	3446                	fld	fs0,112(sp)
    800201f2:	5c5d                	li	s8,-9
    800201f4:	5480                	lw	s0,40(s1)
    800201f6:	c15e                	sw	s7,128(sp)
    800201f8:	8416                	mv	s0,t0
    800201fa:	b821                	j	8001fa12 <_end_data0+0xf812>
    800201fc:	f149                	bnez	a0,8002017e <d_1_21+0xe>
    800201fe:	c522                	sw	s0,136(sp)

Disassembly of section .data.random2:

0000000080030000 <_random_data2>:
    80030000:	0700                	add	s0,sp,896
    80030002:	19fd                	add	s3,s3,-1
    80030004:	c164                	sw	s1,68(a0)
    80030006:	cf0d                	beqz	a4,80030040 <d_2_2>
    80030008:	ee56                	sd	s5,280(sp)
    8003000a:	55f9                	li	a1,-2
    8003000c:	31a7b81b          	.insn	4, 0x31a7b81b
    80030010:	a03d07f3          	.insn	4, 0xa03d07f3
    80030014:	fc95                	bnez	s1,8002ff50 <_end_data1+0xfd50>
    80030016:	d7ee499b          	.insn	4, 0xd7ee499b
    8003001a:	4640                	lw	s0,12(a2)
    8003001c:	95914533          	.insn	4, 0x95914533

0000000080030020 <d_2_0>:
    80030020:	1241                	add	tp,tp,-16 # fffffffffffffff0 <_end+0xffffffff7ff9fdf0>
    80030022:	c4e0                	sw	s0,76(s1)
    80030024:	3740                	fld	fs0,168(a4)
    80030026:	3670                	fld	fa2,232(a2)
    80030028:	7f3b4e6b          	.insn	4, 0x7f3b4e6b
    8003002c:	3b26                	fld	fs6,104(sp)
    8003002e:	a8ff    	.insn	14, 0xc8672f06efed1af73ec05c4da8ff
    80030036:	   

0000000080030030 <d_2_1>:
    80030030:	5c4d                	li	s8,-13
    80030032:	3ec0                	fld	fs0,184(a3)
    80030034:	efed1af7          	.insn	4, 0xefed1af7
    80030038:	2f06                	fld	ft10,64(sp)
    8003003a:	b22ac867          	.insn	4, 0xb22ac867
    8003003e:	          	.insn	4, 0xbc311f13

0000000080030040 <d_2_2>:
    80030040:	bc31                	j	8002fa5c <_end_data1+0xf85c>
    80030042:	3dc0                	fld	fs0,184(a1)
    80030044:	c4da                	sw	s6,72(sp)
    80030046:	5e0d                	li	t3,-29
    80030048:	2545ee97          	auipc	t4,0x2545e
    8003004c:	1e2e                	sll	t3,t3,0x2b
    8003004e:	d44a                	sw	s2,40(sp)

0000000080030050 <d_2_3>:
    80030050:	b659                	j	8002fbd6 <_end_data1+0xf9d6>
    80030052:	94d30297          	auipc	t0,0x94d30
    80030056:	bcde                	fsd	fs7,120(sp)
    80030058:	c4d8                	sw	a4,12(s1)
    8003005a:	4985                	li	s3,1
    8003005c:	9d5261db          	.insn	4, 0x9d5261db

0000000080030060 <d_2_4>:
    80030060:	1eee                	sll	t4,t4,0x3b
    80030062:	4ece                	lw	t4,208(sp)
    80030064:	347e                	fld	fs0,504(sp)
    80030066:	9089                	srl	s1,s1,0x22
    80030068:	931efca3          	.insn	4, 0x931efca3
    8003006c:	6116                	ld	sp,320(sp)
    8003006e:	75dc                	ld	a5,168(a1)

0000000080030070 <d_2_5>:
    80030070:	fa5f7d23          	.insn	4, 0xfa5f7d23
    80030074:	7174                	ld	a3,224(a0)
    80030076:	2a7a                	fld	fs4,408(sp)
    80030078:	db1c                	sw	a5,48(a4)
    8003007a:	2b20                	fld	fs0,80(a4)
    8003007c:	93f3ab8f          	.insn	4, 0x93f3ab8f

0000000080030080 <d_2_6>:
    80030080:	39e0a44f          	fnmadd.s	fs0,ft1,ft10,ft7,rdn
    80030084:	06a4                	add	s1,sp,840
    80030086:	1f61                	add	t5,t5,-8 # 9ff8 <_start-0x7fff6008>
    80030088:	7035e56f          	jal	a0,8008ef8a <_end+0x2ed8a>
    8003008c:	27988b53          	.insn	4, 0x27988b53

0000000080030090 <d_2_7>:
    80030090:	0fcd                	add	t6,t6,19 # ad2a013 <_start-0x752d5fed>
    80030092:	7a11                	lui	s4,0xfffe4
    80030094:	dea4                	sw	s1,120(a3)
    80030096:	4728d8c3          	.insn	4, 0x4728d8c3
    8003009a:	bbc4                	fsd	fs1,176(a5)
    8003009c:	e1e9                	bnez	a1,8003015e <d_2_19+0xe>
    8003009e:	7cb5                	lui	s9,0xfffed

00000000800300a0 <d_2_8>:
    800300a0:	f8b5c6cb          	fnmsub.s	fa3,fa1,fa1,ft11,rmm
    800300a4:	6931                	lui	s2,0xc
    800300a6:	17fe                	sll	a5,a5,0x3f
    800300a8:	a03d                	j	800300d6 <d_2_11+0x6>
    800300aa:	1116                	sll	sp,sp,0x25
    800300ac:	4fcd                	li	t6,19
    800300ae:	25a2                	fld	fa1,8(sp)

00000000800300b0 <d_2_9>:
    800300b0:	1f52                	sll	t5,t5,0x34
    800300b2:	4214                	lw	a3,0(a2)
    800300b4:	34aa                	fld	fs1,168(sp)
    800300b6:	095a                	sll	s2,s2,0x16
    800300b8:	55ce                	lw	a1,240(sp)
    800300ba:	314a77af          	.insn	4, 0x314a77af
    800300be:	d30d                	beqz	a4,8002ffe0 <_end_data1+0xfde0>

00000000800300c0 <d_2_10>:
    800300c0:	4917d66f          	jal	a2,800add50 <_end+0x4db50>
    800300c4:	75d4d613          	.insn	4, 0x75d4d613
    800300c8:	9880                	.insn	2, 0x9880
    800300ca:	1b177393          	and	t2,a4,433
    800300ce:	fc9d                	bnez	s1,8003000c <_random_data2+0xc>

00000000800300d0 <d_2_11>:
    800300d0:	4e54                	lw	a3,28(a2)
    800300d2:	960a                	add	a2,a2,sp
    800300d4:	0048                	add	a0,sp,4
    800300d6:	e9d0                	sd	a2,144(a1)
    800300d8:	b12c                	fsd	fa1,96(a0)
    800300da:	f4d4                	sd	a3,168(s1)
    800300dc:	f689                	bnez	a3,8002ffe6 <_end_data1+0xfde6>
    800300de:	4039                	c.li	zero,14

00000000800300e0 <d_2_12>:
    800300e0:	3a72                	fld	fs4,312(sp)
    800300e2:	9d14                	.insn	2, 0x9d14
    800300e4:	1c66                	sll	s8,s8,0x39
    800300e6:	383e                	fld	fa6,488(sp)
    800300e8:	6bd4                	ld	a3,144(a5)
    800300ea:	24e8e477          	.insn	4, 0x24e8e477
    800300ee:	b601                	j	8002fbee <_end_data1+0xf9ee>

00000000800300f0 <d_2_13>:
    800300f0:	8493b343          	.insn	4, 0x8493b343
    800300f4:	4cfa                	lw	s9,156(sp)
    800300f6:	337c                	fld	fa5,224(a4)
    800300f8:	d21c                	sw	a5,32(a2)
    800300fa:	5945                	li	s2,-15
    800300fc:	77d9                	lui	a5,0xffff6
    800300fe:	ad1c                	fsd	fa5,24(a0)

0000000080030100 <d_2_14>:
    80030100:	2cf4                	fld	fa3,216(s1)
    80030102:	4a4d0f6b          	.insn	4, 0x4a4d0f6b
    80030106:	2b59                	addw	s6,s6,22
    80030108:	69c2cf57          	.insn	4, 0x69c2cf57
    8003010c:	97fa01a7          	.insn	4, 0x97fa01a7

0000000080030110 <d_2_15>:
    80030110:	9fe9                	.insn	2, 0x9fe9
    80030112:	1b78                	add	a4,sp,444
    80030114:	36f3d58b          	.insn	4, 0x36f3d58b
    80030118:	df19                	beqz	a4,80030036 <d_2_1+0x6>
    8003011a:	d746                	sw	a7,172(sp)
    8003011c:	fe33e373          	csrrs	t1,0xfe3,7

0000000080030120 <d_2_16>:
    80030120:	a82d22eb          	.insn	4, 0xa82d22eb
    80030124:	a4d4                	fsd	fa3,136(s1)
    80030126:	0ae8                	add	a0,sp,348
    80030128:	411a                	lw	sp,132(sp)
    8003012a:	ae25                	j	80030462 <_end_data2+0x262>
    8003012c:	769a                	ld	a3,416(sp)
    8003012e:	8d34                	.insn	2, 0x8d34

0000000080030130 <d_2_17>:
    80030130:	253c                	fld	fa5,72(a0)
    80030132:	43c8                	lw	a0,4(a5)
    80030134:	9c8e                	add	s9,s9,gp
    80030136:	2af3f7f3          	csrrc	a5,0x2af,7
    8003013a:	87ce                	mv	a5,s3
    8003013c:	487724c3          	fmadd.s	fs1,fa4,ft7,fs1,rdn

0000000080030140 <d_2_18>:
    80030140:	dcbc                	sw	a5,120(s1)
    80030142:	4c44                	lw	s1,28(s0)
    80030144:	c125                	beqz	a0,800301a4 <d_2_24+0x4>
    80030146:	a732                	fsd	fa2,392(sp)
    80030148:	7211282b          	.insn	4, 0x7211282b
    8003014c:	e5a9                	bnez	a1,80030196 <d_2_23+0x6>
    8003014e:	6fb2                	ld	t6,264(sp)

0000000080030150 <d_2_19>:
    80030150:	0609                	add	a2,a2,2
    80030152:	ed993f87          	fld	ft11,-295(s2) # bed9 <_start-0x7fff4127>
    80030156:	63fa                	ld	t2,408(sp)
    80030158:	683e                	ld	a6,456(sp)
    8003015a:	f9e8                	sd	a0,240(a1)
    8003015c:	0716fe67          	.insn	4, 0x0716fe67

0000000080030160 <d_2_20>:
    80030160:	be4c018f          	.insn	4, 0xbe4c018f
    80030164:	9ac6                	add	s5,s5,a7
    80030166:	04b6                	sll	s1,s1,0xd
    80030168:	d34d                	beqz	a4,8003010a <d_2_14+0xa>
    8003016a:	365d                	addw	a2,a2,-9
    8003016c:	e129                	bnez	a0,800301ae <d_2_24+0xe>
    8003016e:	74e2                	ld	s1,56(sp)

0000000080030170 <d_2_21>:
    80030170:	4498                	lw	a4,8(s1)
    80030172:	fcf1                	bnez	s1,8003014e <d_2_18+0xe>
    80030174:	f04847e3          	blt	a6,tp,80030082 <d_2_6+0x2>
    80030178:	a008                	fsd	fa0,0(s0)
    8003017a:	451a                	lw	a0,132(sp)
    8003017c:	76d4                	ld	a3,168(a3)
    8003017e:	          	.insn	4, 0xcd2650eb

0000000080030180 <d_2_22>:
    80030180:	cd26                	sw	s1,152(sp)
    80030182:	578e                	lw	a5,224(sp)
    80030184:	1c44                	add	s1,sp,564
    80030186:	06d8                	add	a4,sp,836
    80030188:	29be                	fld	fs3,456(sp)
    8003018a:	5f38                	lw	a4,120(a4)
    8003018c:	63dc                	ld	a5,128(a5)
    8003018e:	9b1c                	.insn	2, 0x9b1c

0000000080030190 <d_2_23>:
    80030190:	b2ad                	j	8002fafa <_end_data1+0xf8fa>
    80030192:	7266                	ld	tp,120(sp)
    80030194:	c3c4                	sw	s1,4(a5)
    80030196:	2b0a                	fld	fs6,128(sp)
    80030198:	994c                	.insn	2, 0x994c
    8003019a:	746c                	ld	a1,232(s0)
    8003019c:	6dfe                	ld	s11,472(sp)
    8003019e:	0fff    	.insn	10, 0x749061f5fbf8196e0fff
    800301a6:	 

00000000800301a0 <d_2_24>:
    800301a0:	196e                	sll	s2,s2,0x3b
    800301a2:	fbf8                	sd	a4,240(a5)
    800301a4:	61f5                	lui	gp,0x1d
    800301a6:	7490                	ld	a2,40(s1)
    800301a8:	f20e                	sd	gp,288(sp)
    800301aa:	eeb5                	bnez	a3,80030226 <_end_data2+0x26>
    800301ac:	a07e                	fsd	ft11,0(sp)
    800301ae:	f6d2                	sd	s4,360(sp)

00000000800301b0 <d_2_25>:
    800301b0:	9610                	.insn	2, 0x9610
    800301b2:	88fd3617          	auipc	a2,0x88fd3
    800301b6:	08f2                	sll	a7,a7,0x1c
    800301b8:	516c                	lw	a1,100(a0)
    800301ba:	9749                	sra	a4,a4,0x32
    800301bc:	697c                	ld	a5,208(a0)
    800301be:	9b41                	and	a4,a4,-16

00000000800301c0 <d_2_26>:
    800301c0:	7b79                	lui	s6,0xffffe
    800301c2:	0559                	add	a0,a0,22 # 13016 <_start-0x7ffecfea>
    800301c4:	abf6                	fsd	ft9,464(sp)
    800301c6:	4d78                	lw	a4,92(a0)
    800301c8:	4ccd                	li	s9,19
    800301ca:	5460                	lw	s0,108(s0)
    800301cc:	10a0fcbf  	.insn	8, 0xc49ad2f510a0fcbf

00000000800301d0 <d_2_27>:
    800301d0:	d2f5                	beqz	a3,800301b4 <d_2_25+0x4>
    800301d2:	c49a                	sw	t1,72(sp)
    800301d4:	68f4                	ld	a3,208(s1)
    800301d6:	ab1f 76b7 571c      	.insn	6, 0x571c76b7ab1f
    800301dc:	1d8a                	sll	s11,s11,0x22
    800301de:	5e58                	lw	a4,60(a2)
    800301e0:	b121                	j	8002fde8 <_end_data1+0xfbe8>
    800301e2:	12815e5b          	.insn	4, 0x12815e5b
    800301e6:	86d1                	sra	a3,a3,0x14
    800301e8:	81a0                	.insn	2, 0x81a0
    800301ea:	711f05a7          	.insn	4, 0x711f05a7
    800301ee:	75d9                	lui	a1,0xffff6
    800301f0:	d956                	sw	s5,176(sp)
    800301f2:	9cb6                	add	s9,s9,a3
    800301f4:	47b4                	lw	a3,72(a5)
    800301f6:	d881                	beqz	s1,80030106 <d_2_14+0x6>
    800301f8:	7cd6                	ld	s9,368(sp)
    800301fa:	0cde59b3          	.insn	4, 0x0cde59b3
    800301fe:	676a                	ld	a4,152(sp)

Disassembly of section .data.random3:

0000000080040000 <_random_data3>:
    80040000:	2eee                	fld	ft9,216(sp)
    80040002:	d0a5                	beqz	s1,8003ff62 <_end_data2+0xfd62>
    80040004:	1a603c87          	fld	fs9,422(zero) # 1a6 <_start-0x7ffffe5a>
    80040008:	7fd6                	ld	t6,368(sp)
    8004000a:	6549d553          	.insn	4, 0x6549d553
    8004000e:	d5d5                	beqz	a1,8003ffba <_end_data2+0xfdba>
    80040010:	efbd                	bnez	a5,8004008e <d_3_6+0xe>
    80040012:	6adb5a27          	.insn	4, 0x6adb5a27
    80040016:	387d                	addw	a6,a6,-1
    80040018:	ab21                	j	80040530 <_end_data3+0x330>
    8004001a:	527d                	li	tp,-1
    8004001c:	5166399b          	.insn	4, 0x5166399b

0000000080040020 <d_3_0>:
    80040020:	f889                	bnez	s1,8003ff32 <_end_data2+0xfd32>
    80040022:	932e                	add	t1,t1,a1
    80040024:	147c                	add	a5,sp,556
    80040026:	e290                	sd	a2,0(a3)
    80040028:	486a2ccf          	fnmadd.s	fs9,fs4,ft6,fs1,rdn
    8004002c:	86f7bedb          	.insn	4, 0x86f7bedb

0000000080040030 <d_3_1>:
    80040030:	72b6                	ld	t0,360(sp)
    80040032:	8b6a                	mv	s6,s10
    80040034:	2d60                	fld	fs0,216(a0)
    80040036:	5464                	lw	s1,108(s0)
    80040038:	c9e5                	beqz	a1,80040128 <d_3_16+0x8>
    8004003a:	001129fb          	.insn	4, 0x001129fb
    8004003e:	          	csrrw	t2,hpmcounter11h,sp

0000000080040040 <d_3_2>:
    80040040:	c8b1                	beqz	s1,80040094 <d_3_7+0x4>
    80040042:	6cca                	ld	s9,144(sp)
    80040044:	2655                	addw	a2,a2,21 # 90031c7 <_start-0x76ffce39>
    80040046:	1a9a                	sll	s5,s5,0x26
    80040048:	8a09                	and	a2,a2,2
    8004004a:	baaa                	fsd	fa0,368(sp)
    8004004c:	c265                	beqz	a2,8004012c <d_3_16+0xc>
    8004004e:	2cff    	.insn	14, 0xc0314c8d787143b092d08bba2cff
    80040056:	   

0000000080040050 <d_3_3>:
    80040050:	8bba                	mv	s7,a4
    80040052:	92d0                	.insn	2, 0x92d0
    80040054:	43b0                	lw	a2,64(a5)
    80040056:	7871                	lui	a6,0xffffc
    80040058:	4c8d                	li	s9,3
    8004005a:	c031                	beqz	s0,8004009e <d_3_7+0xe>
    8004005c:	1601                	add	a2,a2,-32
    8004005e:	2c3d                	addw	s8,s8,15

0000000080040060 <d_3_4>:
    80040060:	e0b76063          	bltu	a4,a1,8003f660 <_end_data2+0xf460>
    80040064:	decc                	sw	a1,60(a3)
    80040066:	8bf9                	and	a5,a5,30
    80040068:	3cdf fad5 2e19      	.insn	6, 0x2e19fad53cdf
    8004006e:	a934                	fsd	fa3,80(a0)

0000000080040070 <d_3_5>:
    80040070:	a2ff 3158 599b 52b8 	.insn	14, 0xdd9a7b34268052b8599b3158a2ff
    80040078:	2680 7b34 dd9a 
    8004007e:	faf1                	bnez	a3,80040052 <d_3_3+0x2>

0000000080040080 <d_3_6>:
    80040080:	c5ac                	sw	a1,72(a1)
    80040082:	d91d                	beqz	a0,8003ffb8 <_end_data2+0xfdb8>
    80040084:	0d0d                	add	s10,s10,3
    80040086:	513e                	lw	sp,236(sp)
    80040088:	83e4                	.insn	2, 0x83e4
    8004008a:	0bc994bf  	.insn	8, 0x7ae433c40bc994bf

0000000080040090 <d_3_7>:
    80040090:	7ae4                	ld	s1,240(a3)
    80040092:	62771c9b          	.insn	4, 0x62771c9b
    80040096:	fa3326e3          	.insn	4, 0xfa3326e3
    8004009a:	4e0c                	lw	a1,24(a2)
    8004009c:	219f 4ab6       	.insn	6, 0x311c4ab6219f

00000000800400a0 <d_3_8>:
    800400a0:	311c                	fld	fa5,32(a0)
    800400a2:	0f64                	add	s1,sp,924
    800400a4:	6dd6                	ld	s11,336(sp)
    800400a6:	55a9                	li	a1,-22
    800400a8:	8ea9                	xor	a3,a3,a0
    800400aa:	88ff6333          	.insn	4, 0x88ff6333
    800400ae:	fdf1                	bnez	a1,8004008a <d_3_6+0xa>

00000000800400b0 <d_3_9>:
    800400b0:	0830                	add	a2,sp,24
    800400b2:	3780                	fld	fs0,40(a5)
    800400b4:	578c                	lw	a1,40(a5)
    800400b6:	cd2d                	beqz	a0,80040130 <d_3_17>
    800400b8:	0945                	add	s2,s2,17
    800400ba:	810a                	mv	sp,sp
    800400bc:	0eafc69b          	.insn	4, 0x0eafc69b

00000000800400c0 <d_3_10>:
    800400c0:	9510                	.insn	2, 0x9510
    800400c2:	4f7c                	lw	a5,92(a4)
    800400c4:	272d                	addw	a4,a4,11 # ffffffffffffb00b <_end+0xffffffff7ff9ae0b>
    800400c6:	6c458d03          	lb	s10,1732(a1) # ffffffffffff66c4 <_end+0xffffffff7ff964c4>
    800400ca:	0fe2                	sll	t6,t6,0x18
    800400cc:	ce22                	sw	s0,28(sp)
    800400ce:	500e                	.insn	2, 0x500e

00000000800400d0 <d_3_11>:
    800400d0:	2325                	addw	t1,t1,9
    800400d2:	6470                	ld	a2,200(s0)
    800400d4:	fe431fcb          	.insn	4, 0xfe431fcb
    800400d8:	f1c6                	sd	a7,224(sp)
    800400da:	317e37b7          	lui	a5,0x317e3
    800400de:	f25a                	sd	s6,288(sp)

00000000800400e0 <d_3_12>:
    800400e0:	b0e5                	j	8003f9c8 <_end_data2+0xf7c8>
    800400e2:	a4e6                	fsd	fs9,72(sp)
    800400e4:	c3a2                	sw	s0,196(sp)
    800400e6:	fd98a647          	.insn	4, 0xfd98a647
    800400ea:	42452cef          	jal	s9,8009250e <_end+0x3230e>
    800400ee:	f6a0                	sd	s0,104(a3)

00000000800400f0 <d_3_13>:
    800400f0:	041d                	add	s0,s0,7
    800400f2:	cf1c                	sw	a5,24(a4)
    800400f4:	ecd0                	sd	a2,152(s1)
    800400f6:	a989                	j	80040548 <_end_data3+0x348>
    800400f8:	4ae5                	li	s5,25
    800400fa:	02bd                	add	t0,t0,15 # 14d60061 <_start-0x6b29ff9f>
    800400fc:	c968                	sw	a0,84(a0)
    800400fe:	15e9                	add	a1,a1,-6

0000000080040100 <d_3_14>:
    80040100:	af12                	fsd	ft4,408(sp)
    80040102:	a1f2                	fsd	ft8,192(sp)
    80040104:	d09f530b          	.insn	4, 0xd09f530b
    80040108:	7b9d                	lui	s7,0xfffe7
    8004010a:	580e                	lw	a6,224(sp)
    8004010c:	7c660dcf          	.insn	4, 0x7c660dcf

0000000080040110 <d_3_15>:
    80040110:	dd6fd213          	.insn	4, 0xdd6fd213
    80040114:	8c39                	xor	s0,s0,a4
    80040116:	5820                	lw	s0,112(s0)
    80040118:	8b28                	.insn	2, 0x8b28
    8004011a:	b7ae                	fsd	fa1,488(sp)
    8004011c:	f9ca                	sd	s2,240(sp)
    8004011e:	9790                	.insn	2, 0x9790

0000000080040120 <d_3_16>:
    80040120:	49833f37          	lui	t5,0x49833
    80040124:	642c                	ld	a1,72(s0)
    80040126:	393777c7          	fmsub.s	fa5,fa4,fs3,ft7
    8004012a:	bdc9                	j	8003fffc <_end_data2+0xfdfc>
    8004012c:	1a95                	add	s5,s5,-27 # fffffffffffe9fe5 <_end+0xffffffff7ff89de5>
    8004012e:	6cdf        	.insn	6, 0xdf27e4726cdf

0000000080040130 <d_3_17>:
    80040130:	e472                	sd	t3,8(sp)
    80040132:	37fddf27          	.insn	4, 0x37fddf27
    80040136:	42c4                	lw	s1,4(a3)
    80040138:	c3dc041b          	addw	s0,s8,-963
    8004013c:	cb6765ab          	.insn	4, 0xcb6765ab

0000000080040140 <d_3_18>:
    80040140:	32ec24c3          	fmadd.d	fs1,fs8,fa4,ft6,rdn
    80040144:	bdaebdeb          	.insn	4, 0xbdaebdeb
    80040148:	0628d24f          	.insn	4, 0x0628d24f
    8004014c:	4fc1                	li	t6,16
    8004014e:	623a                	ld	tp,392(sp)

0000000080040150 <d_3_19>:
    80040150:	80e6                	mv	ra,s9
    80040152:	135e                	sll	t1,t1,0x37
    80040154:	2706                	fld	fa4,64(sp)
    80040156:	cb0a                	sw	sp,148(sp)
    80040158:	b55c                	fsd	fa5,168(a0)
    8004015a:	9049                	srl	s0,s0,0x32
    8004015c:	b1fe                	fsd	ft11,224(sp)
    8004015e:	          	.insn	4, 0x18bc988b

0000000080040160 <d_3_20>:
    80040160:	18bc                	add	a5,sp,120
    80040162:	914d                	srl	a0,a0,0x33
    80040164:	c911                	beqz	a0,80040178 <d_3_21+0x8>
    80040166:	c292                	sw	tp,68(sp)
    80040168:	d8aa                	sw	a0,112(sp)
    8004016a:	8589                	sra	a1,a1,0x2
    8004016c:	51f8649b          	.insn	4, 0x51f8649b

0000000080040170 <d_3_21>:
    80040170:	d6e0                	sw	s0,108(a3)
    80040172:	2a80                	fld	fs0,16(a3)
    80040174:	56a5                	li	a3,-23
    80040176:	5b2e                	lw	s6,232(sp)
    80040178:	1492                	sll	s1,s1,0x24
    8004017a:	a908                	fsd	fa0,16(a0)
    8004017c:	ef9da64b          	.insn	4, 0xef9da64b

0000000080040180 <d_3_22>:
    80040180:	2701                	sext.w	a4,a4
    80040182:	fe60                	sd	s0,248(a2)
    80040184:	2ef03727          	fsd	fa5,750(zero) # 2ee <_start-0x7ffffd12>
    80040188:	18e2b7eb          	.insn	4, 0x18e2b7eb
    8004018c:	2471                	addw	s0,s0,28
    8004018e:	1f81                	add	t6,t6,-32

0000000080040190 <d_3_23>:
    80040190:	e352                	sd	s4,384(sp)
    80040192:	b22c                	fsd	fa1,96(a2)
    80040194:	7dd2242b          	.insn	4, 0x7dd2242b
    80040198:	6909                	lui	s2,0x2
    8004019a:	0d8d                	add	s11,s11,3 # 1e003 <_start-0x7ffe1ffd>
    8004019c:	54c8                	lw	a0,44(s1)
    8004019e:	efe6                	sd	s9,472(sp)

00000000800401a0 <d_3_24>:
    800401a0:	ce34                	sw	a3,88(a2)
    800401a2:	39dd                	addw	s3,s3,-9
    800401a4:	6cec                	ld	a1,216(s1)
    800401a6:	94ca                	add	s1,s1,s2
    800401a8:	068a                	sll	a3,a3,0x2
    800401aa:	aa6a                	fsd	fs10,272(sp)
    800401ac:	7449                	lui	s0,0xffff2
    800401ae:	          	.insn	4, 0x4c07d6fb

00000000800401b0 <d_3_25>:
    800401b0:	42794c07          	.insn	4, 0x42794c07
    800401b4:	7779                	lui	a4,0xffffe
    800401b6:	fb35d9d7          	.insn	4, 0xfb35d9d7
    800401ba:	7d757a93          	and	s5,a0,2007
    800401be:	6544                	ld	s1,136(a0)

00000000800401c0 <d_3_26>:
    800401c0:	ec06                	sd	ra,24(sp)
    800401c2:	d24e                	sw	s3,36(sp)
    800401c4:	cd92                	sw	tp,216(sp)
    800401c6:	b7d0                	fsd	fa2,168(a5)
    800401c8:	d4a6                	sw	s1,104(sp)
    800401ca:	6a46                	ld	s4,80(sp)
    800401cc:	1e81                	add	t4,t4,-32 # a548e028 <_end+0x2542de28>
    800401ce:	          	.insn	4, 0x8c1f007b

00000000800401d0 <d_3_27>:
    800401d0:	8c1f 1d58 7bb7      	.insn	6, 0x7bb71d588c1f
    800401d6:	3d0e                	fld	fs10,224(sp)
    800401d8:	438d                	li	t2,3
    800401da:	a7a4                	fsd	fs1,72(a5)
    800401dc:	ba9e37eb          	.insn	4, 0xba9e37eb
    800401e0:	f6d2                	sd	s4,360(sp)
    800401e2:	29d8                	fld	fa4,144(a1)
    800401e4:	96bd                	sra	a3,a3,0x2f
    800401e6:	6a25                	lui	s4,0x9
    800401e8:	d900                	sw	s0,48(a0)
    800401ea:	80bbf283          	.insn	4, 0x80bbf283
    800401ee:	eeba                	sd	a4,344(sp)
    800401f0:	0f86                	sll	t6,t6,0x1
    800401f2:	c996                	sw	t0,208(sp)
    800401f4:	b4677313          	and	t1,a4,-1210
    800401f8:	9ec6                	add	t4,t4,a7
    800401fa:	8722                	mv	a4,s0
    800401fc:	4c41                	li	s8,16
    800401fe:	8b0e                	mv	s6,gp

Disassembly of section .data.random4:

0000000080050000 <_random_data4>:
    80050000:	cbd8                	sw	a4,20(a5)
    80050002:	f980                	sd	s0,48(a1)
    80050004:	cf11                	beqz	a4,80050020 <d_4_0>
    80050006:	09d5                	add	s3,s3,21
    80050008:	e3ae                	sd	a1,448(sp)
    8005000a:	259c                	fld	fa5,8(a1)
    8005000c:	e6f4                	sd	a3,200(a3)
    8005000e:	6316                	ld	t1,320(sp)
    80050010:	a7a404c3          	.insn	4, 0xa7a404c3
    80050014:	99d9                	and	a1,a1,-10
    80050016:	8104                	.insn	2, 0x8104
    80050018:	2b715023          	.insn	4, 0x2b715023
    8005001c:	82a4                	.insn	2, 0x82a4
    8005001e:	9c21                	addw	s0,s0,s0

0000000080050020 <d_4_0>:
    80050020:	6b62                	ld	s6,24(sp)
    80050022:	f27a                	sd	t5,288(sp)
    80050024:	e07c                	sd	a5,192(s0)
    80050026:	2bed                	addw	s7,s7,27 # fffffffffffe701b <_end+0xffffffff7ff86e1b>
    80050028:	6566                	ld	a0,88(sp)
    8005002a:	e540                	sd	s0,136(a0)
    8005002c:	f17dad67          	.insn	4, 0xf17dad67

0000000080050030 <d_4_1>:
    80050030:	1e00                	add	s0,sp,816
    80050032:	723d                	lui	tp,0xfffef
    80050034:	427f 1cca 8c11 e87e 	.insn	18, 0x5fea05c28d71fa4062e3e87e8c111cca427f
    8005003c:	62e3 fa40   
    80050044:	 

0000000080050040 <d_4_2>:
    80050040:	8d71                	and	a0,a0,a2
    80050042:	05c2                	sll	a1,a1,0x10
    80050044:	5fea                	lw	t6,184(sp)
    80050046:	5258                	lw	a4,36(a2)
    80050048:	28a2                	fld	fa7,8(sp)
    8005004a:	b5c426bf  	.insn	8, 0x6f3b8f18b5c426bf

0000000080050050 <d_4_3>:
    80050050:	03036f3b          	remw	t5,t1,a6
    80050054:	2b84                	fld	fs1,16(a5)
    80050056:	8404                	.insn	2, 0x8404
    80050058:	2c6c                	fld	fa1,216(s0)
    8005005a:	d945d45b          	.insn	4, 0xd945d45b
    8005005e:	777f                	.insn	2, 0x777f

0000000080050060 <d_4_4>:
    80050060:	c682                	sw	zero,76(sp)
    80050062:	291e                	fld	fs2,448(sp)
    80050064:	bca5                	j	8004fadc <_end_data3+0xf8dc>
    80050066:	d506                	sw	ra,168(sp)
    80050068:	2109                	addw	sp,sp,2 # ffffffffffe00002 <_end+0xffffffff7fd9fe02>
    8005006a:	5151                	li	sp,-12
    8005006c:	881a                	mv	a6,t1
    8005006e:	e38e                	sd	gp,448(sp)

0000000080050070 <d_4_5>:
    80050070:	282d8dd3          	fmin.s	fs11,fs11,ft2
    80050074:	5245                	li	tp,-15
    80050076:	141e                	sll	s0,s0,0x27
    80050078:	bd22                	fsd	fs0,184(sp)
    8005007a:	3dc0                	fld	fs0,184(a1)
    8005007c:	7e12                	ld	t3,288(sp)
    8005007e:	7b66                	ld	s6,120(sp)

0000000080050080 <d_4_6>:
    80050080:	4d34                	lw	a3,88(a0)
    80050082:	dabd7b63          	bgeu	s10,a1,8004f638 <_end_data3+0xf438>
    80050086:	b694                	fsd	fa3,40(a3)
    80050088:	7b55                	lui	s6,0xffff5
    8005008a:	6aa1                	lui	s5,0x8
    8005008c:	573e                	lw	a4,236(sp)
    8005008e:	c02c                	sw	a1,64(s0)

0000000080050090 <d_4_7>:
    80050090:	a6c8                	fsd	fa0,136(a3)
    80050092:	8e7c                	.insn	2, 0x8e7c
    80050094:	23ee                	fld	ft7,216(sp)
    80050096:	bde8                	fsd	fa0,248(a1)
    80050098:	7afc                	ld	a5,240(a3)
    8005009a:	bb6e                	fsd	fs11,432(sp)
    8005009c:	d63a                	sw	a4,44(sp)
    8005009e:	827e                	mv	tp,t6

00000000800500a0 <d_4_8>:
    800500a0:	0974                	add	a3,sp,156
    800500a2:	342d                	addw	s0,s0,-21 # ffffffffffff1feb <_end+0xffffffff7ff91deb>
    800500a4:	6159c107          	.insn	4, 0x6159c107
    800500a8:	04a6                	sll	s1,s1,0x9
    800500aa:	60e17347          	fmsub.s	ft6,ft2,fa4,fa2
    800500ae:	ae20                	fsd	fs0,88(a2)

00000000800500b0 <d_4_9>:
    800500b0:	d81f 86fc 1ff8      	.insn	6, 0x1ff886fcd81f
    800500b6:	aabc                	fsd	fa5,80(a3)
    800500b8:	a59c                	fsd	fa5,8(a1)
    800500ba:	2496                	fld	fs1,320(sp)
    800500bc:	a80acd73          	.insn	4, 0xa80acd73

00000000800500c0 <d_4_10>:
    800500c0:	9586dfa7          	.insn	4, 0x9586dfa7
    800500c4:	9264                	.insn	2, 0x9264
    800500c6:	5e15                	li	t3,-27
    800500c8:	66ce                	ld	a3,208(sp)
    800500ca:	b682                	fsd	ft0,360(sp)
    800500cc:	cea0d5f7          	.insn	4, 0xcea0d5f7

00000000800500d0 <d_4_11>:
    800500d0:	a5a6                	fsd	fs1,200(sp)
    800500d2:	54fe                	lw	s1,252(sp)
    800500d4:	581f 5a38 250b      	.insn	6, 0x250b5a38581f
    800500da:	6676926b          	.insn	4, 0x6676926b
    800500de:	f340                	sd	s0,160(a4)

00000000800500e0 <d_4_12>:
    800500e0:	1b1a                	sll	s6,s6,0x26
    800500e2:	26dd                	addw	a3,a3,23
    800500e4:	f0f492f3          	csrrw	t0,0xf0f,s1
    800500e8:	b10d                	j	8004fd0a <_end_data3+0xfb0a>
    800500ea:	1c21                	add	s8,s8,-24
    800500ec:	0a1101f7          	.insn	4, 0x0a1101f7

00000000800500f0 <d_4_13>:
    800500f0:	d835                	beqz	s0,80050064 <d_4_4+0x4>
    800500f2:	32c0                	fld	fs0,160(a3)
    800500f4:	c74a                	sw	s2,140(sp)
    800500f6:	b761                	j	8005007e <d_4_5+0xe>
    800500f8:	1705                	add	a4,a4,-31 # ffffffffffffdfe1 <_end+0xffffffff7ff9dde1>
    800500fa:	1fde                	sll	t6,t6,0x37
    800500fc:	0c9d15b7          	lui	a1,0xc9d1

0000000080050100 <d_4_14>:
    80050100:	cc99                	beqz	s1,8005011e <d_4_15+0xe>
    80050102:	d431                	beqz	s0,8005004e <d_4_2+0xe>
    80050104:	c65a                	sw	s6,12(sp)
    80050106:	7ba4                	ld	s1,112(a5)
    80050108:	50f5                	li	ra,-3
    8005010a:	c854                	sw	a3,20(s0)
    8005010c:	8699e27b          	.insn	4, 0x8699e27b

0000000080050110 <d_4_15>:
    80050110:	69ed                	lui	s3,0x1b
    80050112:	1a12                	sll	s4,s4,0x24
    80050114:	4fb6f05b          	.insn	4, 0x4fb6f05b
    80050118:	23c6                	fld	ft7,80(sp)
    8005011a:	d88d                	beqz	s1,8005004c <d_4_2+0xc>
    8005011c:	6420                	ld	s0,72(s0)
    8005011e:	93e1                	srl	a5,a5,0x38

0000000080050120 <d_4_16>:
    80050120:	0c7f 160c a0f8 b3ff 	.insn	10, 0xb93cb3ffa0f8160c0c7f
    80050128:	b93c 
    8005012a:	f5da                	sd	s6,232(sp)
    8005012c:	326e                	fld	ft4,248(sp)
    8005012e:	a324                	fsd	fs1,64(a4)

0000000080050130 <d_4_17>:
    80050130:	560e                	lw	a2,224(sp)
    80050132:	0bae                	sll	s7,s7,0xb
    80050134:	64dd                	lui	s1,0x17
    80050136:	16ac                	add	a1,sp,872
    80050138:	5664                	lw	s1,108(a2)
    8005013a:	33f6                	fld	ft7,376(sp)
    8005013c:	9132                	add	sp,sp,a2
    8005013e:	d062                	sw	s8,32(sp)

0000000080050140 <d_4_18>:
    80050140:	2482                	fld	fs1,0(sp)
    80050142:	9615                	sra	a2,a2,0x25
    80050144:	c6e1                	beqz	a3,8005020c <_end_data4+0xc>
    80050146:	d762                	sw	s8,172(sp)
    80050148:	a771                	j	800508d4 <_end_data4+0x6d4>
    8005014a:	14b1                	add	s1,s1,-20 # 16fec <_start-0x7ffe9014>
    8005014c:	e104                	sd	s1,0(a0)
    8005014e:	63bd                	lui	t2,0xf

0000000080050150 <d_4_19>:
    80050150:	2588                	fld	fa0,8(a1)
    80050152:	c4597373          	csrrc	t1,0xc45,18
    80050156:	354f6057          	.insn	4, 0x354f6057
    8005015a:	7ca11a33          	.insn	4, 0x7ca11a33
    8005015e:	03c9                	add	t2,t2,18 # f012 <_start-0x7fff0fee>

0000000080050160 <d_4_20>:
    80050160:	9a79ddbf 7dbb343a 	.insn	8, 0x7dbb343a9a79ddbf
    80050168:	5e5e                	lw	t3,244(sp)
    8005016a:	1540                	add	s0,sp,676
    8005016c:	cbd224e3          	.insn	4, 0xcbd224e3

0000000080050170 <d_4_21>:
    80050170:	599060bf 13904ea7 	.insn	8, 0x13904ea7599060bf
    80050178:	665a                	ld	a2,400(sp)
    8005017a:	0509                	add	a0,a0,2
    8005017c:	0b8d                	add	s7,s7,3
    8005017e:	a6fc                	fsd	fa5,200(a3)

0000000080050180 <d_4_22>:
    80050180:	6cf8                	ld	a4,216(s1)
    80050182:	3e05                	addw	t3,t3,-31 # ffffffffffff8fe1 <_end+0xffffffff7ff98de1>
    80050184:	dd1f 360d 8388      	.insn	6, 0x8388360ddd1f
    8005018a:	0386d5db          	.insn	4, 0x0386d5db
    8005018e:	a0da                	fsd	fs6,64(sp)

0000000080050190 <d_4_23>:
    80050190:	faff                	.insn	2, 0xfaff
    80050192:	35c0                	fld	fs0,168(a1)
    80050194:	ace716e3          	bne	a4,a4,8004fc60 <_end_data3+0xfa60>
    80050198:	d65408d7          	.insn	4, 0xd65408d7
    8005019c:	e30a                	sd	sp,384(sp)
    8005019e:	9882                	jalr	a7

00000000800501a0 <d_4_24>:
    800501a0:	fcda886f          	jal	a6,7fff916c <_start-0x6e94>
    800501a4:	f8a4                	sd	s1,112(s1)
    800501a6:	c5dc9073          	csrw	0xc5d,s9
    800501aa:	1f16                	sll	t5,t5,0x25
    800501ac:	c968                	sw	a0,84(a0)
    800501ae:	3a22                	fld	fs4,40(sp)

00000000800501b0 <d_4_25>:
    800501b0:	31f77827          	.insn	4, 0x31f77827
    800501b4:	f710d047          	.insn	4, 0xf710d047
    800501b8:	c8ce                	sw	s3,80(sp)
    800501ba:	c641                	beqz	a2,80050242 <_end_data4+0x42>
    800501bc:	b261                	j	8004fb44 <_end_data3+0xf944>
    800501be:	1e70                	add	a2,sp,828

00000000800501c0 <d_4_26>:
    800501c0:	0089                	add	ra,ra,2
    800501c2:	0615                	add	a2,a2,5
    800501c4:	b218                	fsd	fa4,32(a2)
    800501c6:	a5d9                	j	8005088c <_end_data4+0x68c>
    800501c8:	213d                	addw	sp,sp,15
    800501ca:	7865                	lui	a6,0xffff9
    800501cc:	56c02bbb          	.insn	4, 0x56c02bbb

00000000800501d0 <d_4_27>:
    800501d0:	3375                	addw	t1,t1,-3
    800501d2:	9a7d                	and	a2,a2,-1
    800501d4:	ba89                	j	8004fb26 <_end_data3+0xf926>
    800501d6:	465d                	li	a2,23
    800501d8:	e65ab577          	.insn	4, 0xe65ab577
    800501dc:	a4a4                	fsd	fs1,72(s1)
    800501de:	06d2                	sll	a3,a3,0x14
    800501e0:	5a7a                	lw	s4,188(sp)
    800501e2:	65a8                	ld	a0,72(a1)
    800501e4:	f212                	sd	tp,288(sp)
    800501e6:	e6e8                	sd	a0,200(a3)
    800501e8:	79e4                	ld	s1,240(a1)
    800501ea:	8ed4                	.insn	2, 0x8ed4
    800501ec:	30b1                	addw	ra,ra,-20
    800501ee:	2c0c                	fld	fa1,24(s0)
    800501f0:	ea5d                	bnez	a2,800502a6 <_end_data4+0xa6>
    800501f2:	3330                	fld	fa2,96(a4)
    800501f4:	d6f0                	sw	a2,108(a3)
    800501f6:	5e28                	lw	a0,120(a2)
    800501f8:	5f62                	lw	t5,56(sp)
    800501fa:	0876                	sll	a6,a6,0x1d
    800501fc:	dc12                	sw	tp,56(sp)
    800501fe:	7b05                	lui	s6,0xfffe1

Disassembly of section .data.random5:

0000000080060000 <_random_data5>:
    80060000:	1cfe                	sll	s9,s9,0x3f
    80060002:	d5b8                	sw	a4,104(a1)
    80060004:	9dfc                	.insn	2, 0x9dfc
    80060006:	3350                	fld	fa2,160(a4)
    80060008:	1bdd                	add	s7,s7,-9
    8006000a:	2d06                	fld	fs10,64(sp)
    8006000c:	dc34599b          	.insn	4, 0xdc34599b
    80060010:	e062                	sd	s8,0(sp)
    80060012:	187e                	sll	a6,a6,0x3f
    80060014:	eab9                	bnez	a3,8006006a <d_5_4+0xa>
    80060016:	a411                	j	8006021a <_end+0x1a>
    80060018:	a1dc                	fsd	fa5,128(a1)
    8006001a:	22d1                	addw	t0,t0,20
    8006001c:	94381843          	.insn	4, 0x94381843

0000000080060020 <d_5_0>:
    80060020:	13e1                	add	t2,t2,-8
    80060022:	41c5                	li	gp,17
    80060024:	39ad09cf          	fnmadd.s	fs3,fs10,fs10,ft7,rne
    80060028:	d996a14b          	fnmsub.s	ft2,fa3,fs9,fs11,rdn
    8006002c:	2ef4                	fld	fa3,216(a3)
    8006002e:	          	lui	t1,0xc9361

0000000080060030 <d_5_1>:
    80060030:	c936                	sw	a3,144(sp)
    80060032:	8a8a78d7          	.insn	4, 0x8a8a78d7
    80060036:	6ba9dc47          	fmsub.d	fs8,fs3,fs10,fa3,unknown
    8006003a:	f8a1                	bnez	s1,8005ff8a <_end_data4+0xfd8a>
    8006003c:	cf30                	sw	a2,88(a4)
    8006003e:	          	fmsub.d	fs7,fs7,ft10,ft9,rtz

0000000080060040 <d_5_2>:
    80060040:	993bebeb          	.insn	4, 0x993bebeb
    80060044:	c474                	sw	a3,76(s0)
    80060046:	fc72                	sd	t3,56(sp)
    80060048:	4848                	lw	a0,20(s0)
    8006004a:	01c4                	add	s1,sp,196
    8006004c:	1f8c05bf  	.insn	8, 0x469be04c1f8c05bf

0000000080060050 <d_5_3>:
    80060050:	e04c                	sd	a1,128(s0)
    80060052:	5c8f469b          	.insn	4, 0x5c8f469b
    80060056:	c2b824bb          	.insn	4, 0xc2b824bb
    8006005a:	2d687537          	lui	a0,0x2d687
    8006005e:	          	.insn	4, 0xe42d91d7

0000000080060060 <d_5_4>:
    80060060:	e42d                	bnez	s0,800600ca <d_5_10+0xa>
    80060062:	6cc4                	ld	s1,152(s1)
    80060064:	2242                	fld	ft4,16(sp)
    80060066:	9d15cf1b          	.insn	4, 0x9d15cf1b
    8006006a:	d5e5                	beqz	a1,80060052 <d_5_3+0x2>
    8006006c:	8864                	.insn	2, 0x8864
    8006006e:	3111                	addw	sp,sp,-28

0000000080060070 <d_5_5>:
    80060070:	10e2                	sll	ra,ra,0x38
    80060072:	3bf4                	fld	fa3,240(a5)
    80060074:	1c22                	sll	s8,s8,0x28
    80060076:	4ddc                	lw	a5,28(a1)
    80060078:	f99a3913          	sltiu	s2,s4,-103
    8006007c:	c2d5                	beqz	a3,80060120 <d_5_16>
    8006007e:	bbe8                	fsd	fa0,240(a5)

0000000080060080 <d_5_6>:
    80060080:	a379                	j	8006060e <_end+0x40e>
    80060082:	e8bfc24b          	fnmsub.s	ft4,ft11,fa1,ft9,rmm
    80060086:	5628e713          	or	a4,a7,1378
    8006008a:	4baa                	lw	s7,136(sp)
    8006008c:	6b4f7677          	.insn	4, 0x6b4f7677

0000000080060090 <d_5_7>:
    80060090:	eed9                	bnez	a3,8006012e <d_5_16+0xe>
    80060092:	8d92                	mv	s11,tp
    80060094:	cbd2                	sw	s4,212(sp)
    80060096:	e8d0                	sd	a2,144(s1)
    80060098:	59e4                	lw	s1,116(a1)
    8006009a:	c546                	sw	a7,136(sp)
    8006009c:	79b4                	ld	a3,112(a1)
    8006009e:	1150                	add	a2,sp,164

00000000800600a0 <d_5_8>:
    800600a0:	2df693cf          	.insn	4, 0x2df693cf
    800600a4:	4251                	li	tp,20
    800600a6:	c404                	sw	s1,8(s0)
    800600a8:	bc8a7e13          	and	t3,s4,-1080
    800600ac:	bd25824f          	.insn	4, 0xbd25824f

00000000800600b0 <d_5_9>:
    800600b0:	61f9                	lui	gp,0x1e
    800600b2:	1394                	add	a3,sp,480
    800600b4:	e8d6                	sd	s5,80(sp)
    800600b6:	ae4e                	fsd	fs3,280(sp)
    800600b8:	1d2e                	sll	s10,s10,0x2b
    800600ba:	d38f5aa3          	.insn	4, 0xd38f5aa3
    800600be:	0445                	add	s0,s0,17

00000000800600c0 <d_5_10>:
    800600c0:	871ba057          	.insn	4, 0x871ba057
    800600c4:	f564                	sd	s1,232(a0)
    800600c6:	b81a                	fsd	ft6,48(sp)
    800600c8:	9126                	add	sp,sp,s1
    800600ca:	5039                	c.li	zero,-18
    800600cc:	3f80                	fld	fs0,56(a5)
    800600ce:	35ec                	fld	fa1,232(a1)

00000000800600d0 <d_5_11>:
    800600d0:	653d                	lui	a0,0xf
    800600d2:	db60                	sw	s0,116(a4)
    800600d4:	d610                	sw	a2,40(a2)
    800600d6:	90fa                	add	ra,ra,t5
    800600d8:	3f86                	fld	ft11,96(sp)
    800600da:	43fd                	li	t2,31
    800600dc:	0ac31e53          	fsub.d	ft8,ft6,fa2,rtz

00000000800600e0 <d_5_12>:
    800600e0:	0e96                	sll	t4,t4,0x5
    800600e2:	5782                	lw	a5,32(sp)
    800600e4:	bcef354f          	.insn	4, 0xbcef354f
    800600e8:	d6ec6bc7          	.insn	4, 0xd6ec6bc7
    800600ec:	0948                	add	a0,sp,148
    800600ee:	b3de                	fsd	fs7,480(sp)

00000000800600f0 <d_5_13>:
    800600f0:	80df 8cc4 4e0d      	.insn	6, 0x4e0d8cc480df
    800600f6:	9ef8                	.insn	2, 0x9ef8
    800600f8:	76e5                	lui	a3,0xffff9
    800600fa:	8162134f          	fnmadd.s	ft6,ft4,fs6,fa6,rtz
    800600fe:	          	.insn	4, 0x6889b85b

0000000080060100 <d_5_14>:
    80060100:	6889                	lui	a7,0x2
    80060102:	5c51                	li	s8,-12
    80060104:	7164f5ab          	.insn	4, 0x7164f5ab
    80060108:	5d65                	li	s10,-7
    8006010a:	08df729b          	.insn	4, 0x08df729b
    8006010e:	b589                	j	8005ff50 <_end_data4+0xfd50>

0000000080060110 <d_5_15>:
    80060110:	5af1                	li	s5,-4
    80060112:	ffd0                	sd	a2,184(a5)
    80060114:	01ce                	sll	gp,gp,0x13
    80060116:	1b526257          	.insn	4, 0x1b526257
    8006011a:	344c                	fld	fa1,168(s0)
    8006011c:	14d6                	sll	s1,s1,0x35
    8006011e:	  	.insn	8, 0xd1dcb5da9eaad93f

0000000080060120 <d_5_16>:
    80060120:	9eaa                	add	t4,t4,a0
    80060122:	b5da                	fsd	fs6,232(sp)
    80060124:	d1dc                	sw	a5,36(a1)
    80060126:	46bd                	li	a3,15
    80060128:	3945                	addw	s2,s2,-15 # 1ff1 <_start-0x7fffe00f>
    8006012a:	67ac                	ld	a1,72(a5)
    8006012c:	8a7b75af          	.insn	4, 0x8a7b75af

0000000080060130 <d_5_17>:
    80060130:	bfee                	fsd	fs11,504(sp)
    80060132:	f1b0                	sd	a2,96(a1)
    80060134:	2c40                	fld	fs0,152(s0)
    80060136:	b884                	fsd	fs1,48(s1)
    80060138:	9c43bea7          	fsd	ft4,-1571(t2)
    8006013c:	bf1e                	fsd	ft7,440(sp)
    8006013e:	2f91                	addw	t6,t6,4

0000000080060140 <d_5_18>:
    80060140:	7436                	ld	s0,360(sp)
    80060142:	51ae                	lw	gp,232(sp)
    80060144:	27b1138b          	.insn	4, 0x27b1138b
    80060148:	bd4d                	j	8005fffa <_end_data4+0xfdfa>
    8006014a:	e645                	bnez	a2,800601f2 <d_5_27+0x22>
    8006014c:	88fc                	.insn	2, 0x88fc
    8006014e:	          	.insn	4, 0x0f8f1dc7

0000000080060150 <d_5_19>:
    80060150:	f6890f8f          	.insn	4, 0xf6890f8f
    80060154:	739e                	ld	t2,480(sp)
    80060156:	8e2a                	mv	t3,a0
    80060158:	38c15b0b          	.insn	4, 0x38c15b0b
    8006015c:	2f84                	fld	fs1,24(a5)
    8006015e:	          	lui	s11,0xe66bc

0000000080060160 <d_5_20>:
    80060160:	ec1fe66b          	.insn	4, 0xec1fe66b
    80060164:	a531                	j	80060770 <_end+0x570>
    80060166:	f170                	sd	a2,224(a0)
    80060168:	a0ac                	fsd	fa1,64(s1)
    8006016a:	41a5                	li	gp,9
    8006016c:	f5aed983          	lhu	s3,-166(t4)

0000000080060170 <d_5_21>:
    80060170:	deb9                	beqz	a3,800600ce <d_5_10+0xe>
    80060172:	19fb4203          	lbu	tp,415(s6) # fffffffffffe119f <_end+0xffffffff7ff80f9f>
    80060176:	eba95b87          	.insn	4, 0xeba95b87
    8006017a:	c345                	beqz	a4,8006021a <_end+0x1a>
    8006017c:	405f 4d28       	.insn	6, 0x853d4d28405f

0000000080060180 <d_5_22>:
    80060180:	853d                	sra	a0,a0,0xf
    80060182:	f54e                	sd	s3,168(sp)
    80060184:	3ee2                	fld	ft9,56(sp)
    80060186:	46f1                	li	a3,28
    80060188:	883240ef          	jal	7ff84a0a <_start-0x7b5f6>
    8006018c:	aff634c7          	.insn	4, 0xaff634c7

0000000080060190 <d_5_23>:
    80060190:	dc65                	beqz	s0,80060188 <d_5_22+0x8>
    80060192:	4716                	lw	a4,68(sp)
    80060194:	6c7a                	ld	s8,408(sp)
    80060196:	fe05                	bnez	a2,800600ce <d_5_10+0xe>
    80060198:	b824                	fsd	fs1,112(s0)
    8006019a:	230d                	addw	t1,t1,3 # ffffffffc9361003 <_end+0xffffffff49300e03>
    8006019c:	e572                	sd	t3,136(sp)
    8006019e:	6291                	lui	t0,0x4

00000000800601a0 <d_5_24>:
    800601a0:	6cf0                	ld	a2,216(s1)
    800601a2:	555c                	lw	a5,44(a0)
    800601a4:	b3f1                	j	8005ff70 <_end_data4+0xfd70>
    800601a6:	6500                	ld	s0,8(a0)
    800601a8:	58d8                	lw	a4,52(s1)
    800601aa:	3b5e                	fld	fs6,496(sp)
    800601ac:	b0f0                	fsd	fa2,224(s1)
    800601ae:	6df9                	lui	s11,0x1e

00000000800601b0 <d_5_25>:
    800601b0:	cb19                	beqz	a4,800601c6 <d_5_26+0x6>
    800601b2:	3fdc                	fld	fa5,184(a5)
    800601b4:	4f55                	li	t5,21
    800601b6:	2666                	fld	fa2,88(sp)
    800601b8:	3a0d                	addw	s4,s4,-29 # 8fe3 <_start-0x7fff701d>
    800601ba:	e0d9                	bnez	s1,80060240 <_end+0x40>
    800601bc:	e2a4                	sd	s1,64(a3)
    800601be:	d20c                	sw	a1,32(a2)

00000000800601c0 <d_5_26>:
    800601c0:	8c3a                	mv	s8,a4
    800601c2:	d9a9                	beqz	a1,80060114 <d_5_15+0x4>
    800601c4:	0fca2253          	.insn	4, 0x0fca2253
    800601c8:	b3475e8b          	.insn	4, 0xb3475e8b
    800601cc:	ef0a                	sd	sp,408(sp)
    800601ce:	5042                	.insn	2, 0x5042

00000000800601d0 <d_5_27>:
    800601d0:	c824                	sw	s1,80(s0)
    800601d2:	5f9a                	lw	t6,164(sp)
    800601d4:	11a1                	add	gp,gp,-24 # 1dfe8 <_start-0x7ffe2018>
    800601d6:	f43e                	sd	a5,40(sp)
    800601d8:	e5c1                	bnez	a1,80060260 <_end+0x60>
    800601da:	2508                	fld	fa0,8(a0)
    800601dc:	e9e2                	sd	s8,208(sp)
    800601de:	7746                	ld	a4,112(sp)
    800601e0:	3bde2ec3          	fmadd.d	ft9,ft8,ft9,ft7,rdn
    800601e4:	53ed                	li	t2,-5
    800601e6:	81f9                	srl	a1,a1,0x1e
    800601e8:	65fa                	ld	a1,408(sp)
    800601ea:	7200                	ld	s0,32(a2)
    800601ec:	ca09                	beqz	a2,800601fe <d_5_27+0x2e>
    800601ee:	cbc1                	beqz	a5,8006027e <_end+0x7e>
    800601f0:	7364                	ld	s1,224(a4)
    800601f2:	e35a                	sd	s6,384(sp)
    800601f4:	d400                	sw	s0,40(s0)
    800601f6:	3201                	addw	tp,tp,-32 # fffffffffffeefe0 <_end+0xffffffff7ff8ede0>
    800601f8:	d9ec                	sw	a1,116(a1)
    800601fa:	c84e                	sw	s3,16(sp)
    800601fc:	dce8ba4b          	.insn	4, 0xdce8ba4b

Disassembly of section .riscv.attributes:

0000000000000000 <.riscv.attributes>:
   0:	5441                	li	s0,-16
   2:	0000                	unimp
   4:	7200                	ld	s0,32(a2)
   6:	7369                	lui	t1,0xffffa
   8:	01007663          	bgeu	zero,a6,14 <_start-0x7fffffec>
   c:	004a                	c.slli	zero,0x12
   e:	0000                	unimp
  10:	7205                	lui	tp,0xfffe1
  12:	3676                	fld	fa2,376(sp)
  14:	6934                	ld	a3,80(a0)
  16:	7032                	.insn	2, 0x7032
  18:	5f31                	li	t5,-20
  1a:	326d                	addw	tp,tp,-5 # fffffffffffe0ffb <_end+0xffffffff7ff80dfb>
  1c:	3070                	fld	fa2,224(s0)
  1e:	615f 7032 5f31      	.insn	6, 0x5f317032615f
  24:	3266                	fld	ft4,120(sp)
  26:	3270                	fld	fa2,224(a2)
  28:	645f 7032 5f32      	.insn	6, 0x5f327032645f
  2e:	30703263          	.insn	4, 0x30703263
  32:	7a5f 6369 7273      	.insn	6, 0x727363697a5f
  38:	7032                	.insn	2, 0x7032
  3a:	5f30                	lw	a2,120(a4)
  3c:	697a                	ld	s2,408(sp)
  3e:	6566                	ld	a0,88(sp)
  40:	636e                	ld	t1,216(sp)
  42:	6965                	lui	s2,0x19
  44:	7032                	.insn	2, 0x7032
  46:	5f30                	lw	a2,120(a4)
  48:	6d7a                	ld	s10,408(sp)
  4a:	756d                	lui	a0,0xffffb
  4c:	316c                	fld	fa1,224(a0)
  4e:	3070                	fld	fa2,224(s0)
  50:	0800                	add	s0,sp,16
  52:	0a01                	add	s4,s4,0
  54:	Address 0x54 is out of bounds.

