
input_nax_6.elf:     file format elf64-littleriscv


Disassembly of section .text.init:

0000000080000000 <_start>:
    80000000:	00010f97          	auipc	t6,0x10
    80000004:	000f8f93          	mv	t6,t6
    80000008:	000fa083          	lw	ra,0(t6) # 80010000 <_random_data0>
    8000000c:	008fa103          	lw	sp,8(t6)
    80000010:	010fa183          	lw	gp,16(t6)
    80000014:	018fa203          	lw	tp,24(t6)
    80000018:	020fa283          	lw	t0,32(t6)
    8000001c:	028fa303          	lw	t1,40(t6)
    80000020:	030fa383          	lw	t2,48(t6)
    80000024:	038fa403          	lw	s0,56(t6)
    80000028:	040fa483          	lw	s1,64(t6)
    8000002c:	048fa503          	lw	a0,72(t6)
    80000030:	050fa583          	lw	a1,80(t6)
    80000034:	058fa603          	lw	a2,88(t6)
    80000038:	060fa683          	lw	a3,96(t6)
    8000003c:	068fa703          	lw	a4,104(t6)
    80000040:	070fa783          	lw	a5,112(t6)
    80000044:	078fa803          	lw	a6,120(t6)
    80000048:	080fa883          	lw	a7,128(t6)
    8000004c:	088fa903          	lw	s2,136(t6)
    80000050:	090fa983          	lw	s3,144(t6)
    80000054:	098faa03          	lw	s4,152(t6)
    80000058:	0a0faa83          	lw	s5,160(t6)
    8000005c:	0a8fab03          	lw	s6,168(t6)
    80000060:	0b0fab83          	lw	s7,176(t6)
    80000064:	0b8fac03          	lw	s8,184(t6)
    80000068:	0c0fac83          	lw	s9,192(t6)
    8000006c:	0c8fad03          	lw	s10,200(t6)
    80000070:	0d0fad83          	lw	s11,208(t6)
    80000074:	0d8fae03          	lw	t3,216(t6)
    80000078:	0e0fae83          	lw	t4,224(t6)
    8000007c:	0e8faf03          	lw	t5,232(t6)
    80000080:	0f0faf83          	lw	t6,240(t6)
    80000084:	21d0006f          	j	80000aa0 <reset_vector>

0000000080000088 <init_freg>:
    80000088:	00020f97          	auipc	t6,0x20
    8000008c:	f78f8f93          	add	t6,t6,-136 # 80020000 <_random_data1>
    80000090:	000fa007          	flw	ft0,0(t6)
    80000094:	008fa087          	flw	ft1,8(t6)
    80000098:	010fa107          	flw	ft2,16(t6)
    8000009c:	018fa187          	flw	ft3,24(t6)
    800000a0:	020fa207          	flw	ft4,32(t6)
    800000a4:	028fa287          	flw	ft5,40(t6)
    800000a8:	030fa307          	flw	ft6,48(t6)
    800000ac:	038fa387          	flw	ft7,56(t6)
    800000b0:	040fa407          	flw	fs0,64(t6)
    800000b4:	048fa487          	flw	fs1,72(t6)
    800000b8:	050fa507          	flw	fa0,80(t6)
    800000bc:	058fa587          	flw	fa1,88(t6)
    800000c0:	060fa607          	flw	fa2,96(t6)
    800000c4:	068fa687          	flw	fa3,104(t6)
    800000c8:	070fa707          	flw	fa4,112(t6)
    800000cc:	078fa787          	flw	fa5,120(t6)
    800000d0:	080fa807          	flw	fa6,128(t6)
    800000d4:	088fa887          	flw	fa7,136(t6)
    800000d8:	090fa907          	flw	fs2,144(t6)
    800000dc:	098fa987          	flw	fs3,152(t6)
    800000e0:	0a0faa07          	flw	fs4,160(t6)
    800000e4:	0a8faa87          	flw	fs5,168(t6)
    800000e8:	0b0fab07          	flw	fs6,176(t6)
    800000ec:	0b8fab87          	flw	fs7,184(t6)
    800000f0:	0c0fac07          	flw	fs8,192(t6)
    800000f4:	0c8fac87          	flw	fs9,200(t6)
    800000f8:	0d0fad07          	flw	fs10,208(t6)
    800000fc:	0d8fad87          	flw	fs11,216(t6)
    80000100:	0e0fae07          	flw	ft8,224(t6)
    80000104:	0e8fae87          	flw	ft9,232(t6)
    80000108:	0f0faf07          	flw	ft10,240(t6)
    8000010c:	0f8faf87          	flw	ft11,248(t6)
    80000110:	8082                	ret
    80000112:	0001                	nop
    80000114:	00000013          	nop
    80000118:	00000013          	nop
    8000011c:	00000013          	nop

0000000080000120 <trap_stvec>:
    80000120:	00000073          	ecall
    80000124:	00000013          	nop
    80000128:	00000013          	nop
    8000012c:	00000013          	nop

0000000080000130 <csr_dump>:
    80000130:	00002097          	auipc	ra,0x2
    80000134:	0d008093          	add	ra,ra,208 # 80002200 <csr_output_data>
    80000138:	10002173          	csrr	sp,sstatus
    8000013c:	0420ac23          	sw	sp,88(ra)
    80000140:	10402173          	csrr	sp,sie
    80000144:	0620a823          	sw	sp,112(ra)
    80000148:	10502173          	csrr	sp,stvec
    8000014c:	0620ac23          	sw	sp,120(ra)
    80000150:	10602173          	csrr	sp,scounteren
    80000154:	0820a023          	sw	sp,128(ra)
    80000158:	14002173          	csrr	sp,sscratch
    8000015c:	0820a423          	sw	sp,136(ra)
    80000160:	14102173          	csrr	sp,sepc
    80000164:	0820a823          	sw	sp,144(ra)
    80000168:	14202173          	csrr	sp,scause
    8000016c:	0820ac23          	sw	sp,152(ra)
    80000170:	14302173          	csrr	sp,stval
    80000174:	0a20a023          	sw	sp,160(ra)
    80000178:	14402173          	csrr	sp,sip
    8000017c:	f7f17113          	and	sp,sp,-129
    80000180:	0a20a423          	sw	sp,168(ra)
    80000184:	18002173          	csrr	sp,satp
    80000188:	0a20a823          	sw	sp,176(ra)
    8000018c:	f1402173          	csrr	sp,mhartid
    80000190:	0a20ac23          	sw	sp,184(ra)
    80000194:	30002173          	csrr	sp,mstatus
    80000198:	0c20a023          	sw	sp,192(ra)
    8000019c:	30202173          	csrr	sp,medeleg
    800001a0:	0c20a423          	sw	sp,200(ra)
    800001a4:	30302173          	csrr	sp,mideleg
    800001a8:	0c20a823          	sw	sp,208(ra)
    800001ac:	30402173          	csrr	sp,mie
    800001b0:	0c20ac23          	sw	sp,216(ra)
    800001b4:	30502173          	csrr	sp,mtvec
    800001b8:	0e20a023          	sw	sp,224(ra)
    800001bc:	30602173          	csrr	sp,mcounteren
    800001c0:	0e20a423          	sw	sp,232(ra)
    800001c4:	34002173          	csrr	sp,mscratch
    800001c8:	0e20a823          	sw	sp,240(ra)
    800001cc:	34102173          	csrr	sp,mepc
    800001d0:	0e20ac23          	sw	sp,248(ra)
    800001d4:	34202173          	csrr	sp,mcause
    800001d8:	1020a023          	sw	sp,256(ra)
    800001dc:	34302173          	csrr	sp,mtval
    800001e0:	1020a423          	sw	sp,264(ra)
    800001e4:	34402173          	csrr	sp,mip
    800001e8:	f7f17113          	and	sp,sp,-129
    800001ec:	1020a823          	sw	sp,272(ra)
    800001f0:	6519                	lui	a0,0x6
    800001f2:	30052073          	csrs	mstatus,a0

00000000800001f6 <fcsrs_dump>:
    800001f6:	00102173          	frflags	sp
    800001fa:	0420a023          	sw	sp,64(ra)
    800001fe:	00202173          	frrm	sp
    80000202:	0420a423          	sw	sp,72(ra)
    80000206:	00302173          	frcsr	sp
    8000020a:	0420a823          	sw	sp,80(ra)

000000008000020e <reg_dump>:
    8000020e:	00002097          	auipc	ra,0x2
    80000212:	df208093          	add	ra,ra,-526 # 80002000 <begin_signature>
    80000216:	0000a023          	sw	zero,0(ra)
    8000021a:	0020a823          	sw	sp,16(ra)
    8000021e:	0030ac23          	sw	gp,24(ra)
    80000222:	0240a023          	sw	tp,32(ra)
    80000226:	0250a423          	sw	t0,40(ra)
    8000022a:	0260a823          	sw	t1,48(ra)
    8000022e:	0270ac23          	sw	t2,56(ra)
    80000232:	0480a023          	sw	s0,64(ra)
    80000236:	0490a423          	sw	s1,72(ra)
    8000023a:	04a0a823          	sw	a0,80(ra)
    8000023e:	04b0ac23          	sw	a1,88(ra)
    80000242:	06c0a023          	sw	a2,96(ra)
    80000246:	06d0a423          	sw	a3,104(ra)
    8000024a:	06e0a823          	sw	a4,112(ra)
    8000024e:	06f0ac23          	sw	a5,120(ra)
    80000252:	0900a023          	sw	a6,128(ra)
    80000256:	0910a423          	sw	a7,136(ra)
    8000025a:	0920a823          	sw	s2,144(ra)
    8000025e:	0930ac23          	sw	s3,152(ra)
    80000262:	0b40a023          	sw	s4,160(ra)
    80000266:	0b50a423          	sw	s5,168(ra)
    8000026a:	0b60a823          	sw	s6,176(ra)
    8000026e:	0b70ac23          	sw	s7,184(ra)
    80000272:	0d80a023          	sw	s8,192(ra)
    80000276:	0d90a423          	sw	s9,200(ra)
    8000027a:	0db0ac23          	sw	s11,216(ra)
    8000027e:	0fc0a023          	sw	t3,224(ra)
    80000282:	0fd0a423          	sw	t4,232(ra)
    80000286:	0fe0a823          	sw	t5,240(ra)

000000008000028a <freg_dump>:
    8000028a:	00002097          	auipc	ra,0x2
    8000028e:	e7608093          	add	ra,ra,-394 # 80002100 <freg_output_data>
    80000292:	0010a427          	fsw	ft1,8(ra)
    80000296:	0020a827          	fsw	ft2,16(ra)
    8000029a:	0270ac27          	fsw	ft7,56(ra)
    8000029e:	0490a427          	fsw	fs1,72(ra)
    800002a2:	04a0a827          	fsw	fa0,80(ra)
    800002a6:	06c0a027          	fsw	fa2,96(ra)
    800002aa:	06d0a427          	fsw	fa3,104(ra)
    800002ae:	0b50a427          	fsw	fs5,168(ra)
    800002b2:	0b60a827          	fsw	fs6,176(ra)
    800002b6:	0d90a427          	fsw	fs9,200(ra)
    800002ba:	0da0a827          	fsw	fs10,208(ra)
    800002be:	0fc0a027          	fsw	ft8,224(ra)
    800002c2:	0fd0a427          	fsw	ft9,232(ra)
    800002c6:	0fe0a827          	fsw	ft10,240(ra)
    800002ca:	0ff0ac27          	fsw	ft11,248(ra)
    800002ce:	00002097          	auipc	ra,0x2
    800002d2:	e3208093          	add	ra,ra,-462 # 80002100 <freg_output_data>
    800002d6:	0000a027          	fsw	ft0,0(ra)
    800002da:	0030ac27          	fsw	ft3,24(ra)
    800002de:	0240a027          	fsw	ft4,32(ra)
    800002e2:	0250a427          	fsw	ft5,40(ra)
    800002e6:	0260a827          	fsw	ft6,48(ra)
    800002ea:	0480a027          	fsw	fs0,64(ra)
    800002ee:	04b0ac27          	fsw	fa1,88(ra)
    800002f2:	06e0a827          	fsw	fa4,112(ra)
    800002f6:	06f0ac27          	fsw	fa5,120(ra)
    800002fa:	0900a027          	fsw	fa6,128(ra)
    800002fe:	0910a427          	fsw	fa7,136(ra)
    80000302:	0920a827          	fsw	fs2,144(ra)
    80000306:	0930ac27          	fsw	fs3,152(ra)
    8000030a:	0b40a027          	fsw	fs4,160(ra)
    8000030e:	0b70ac27          	fsw	fs7,184(ra)
    80000312:	0d80a027          	fsw	fs8,192(ra)
    80000316:	0db0ac27          	fsw	fs11,216(ra)
    8000031a:	00002097          	auipc	ra,0x2
    8000031e:	ee608093          	add	ra,ra,-282 # 80002200 <csr_output_data>
    80000322:	00002117          	auipc	sp,0x2
    80000326:	cde10113          	add	sp,sp,-802 # 80002000 <begin_signature>
    8000032a:	00002197          	auipc	gp,0x2
    8000032e:	dd618193          	add	gp,gp,-554 # 80002100 <freg_output_data>
    80000332:	00010217          	auipc	tp,0x10
    80000336:	cce20213          	add	tp,tp,-818 # 80010000 <_random_data0>
    8000033a:	00020297          	auipc	t0,0x20
    8000033e:	cc628293          	add	t0,t0,-826 # 80020000 <_random_data1>
    80000342:	00030317          	auipc	t1,0x30
    80000346:	cbe30313          	add	t1,t1,-834 # 80030000 <_random_data2>
    8000034a:	00040397          	auipc	t2,0x40
    8000034e:	cb638393          	add	t2,t2,-842 # 80040000 <_random_data3>
    80000352:	00050417          	auipc	s0,0x50
    80000356:	cae40413          	add	s0,s0,-850 # 80050000 <_random_data4>
    8000035a:	00060497          	auipc	s1,0x60
    8000035e:	ca648493          	add	s1,s1,-858 # 80060000 <_random_data5>

0000000080000362 <load_xreg_nax>:
    80000362:	4502                	lw	a0,0(sp)
    80000364:	4522                	lw	a0,8(sp)
    80000366:	4542                	lw	a0,16(sp)
    80000368:	4562                	lw	a0,24(sp)
    8000036a:	5502                	lw	a0,32(sp)
    8000036c:	5522                	lw	a0,40(sp)
    8000036e:	5542                	lw	a0,48(sp)
    80000370:	5562                	lw	a0,56(sp)
    80000372:	4506                	lw	a0,64(sp)
    80000374:	4526                	lw	a0,72(sp)
    80000376:	4546                	lw	a0,80(sp)
    80000378:	4566                	lw	a0,88(sp)
    8000037a:	5506                	lw	a0,96(sp)
    8000037c:	5526                	lw	a0,104(sp)
    8000037e:	5546                	lw	a0,112(sp)
    80000380:	5566                	lw	a0,120(sp)
    80000382:	450a                	lw	a0,128(sp)
    80000384:	452a                	lw	a0,136(sp)
    80000386:	454a                	lw	a0,144(sp)
    80000388:	456a                	lw	a0,152(sp)
    8000038a:	550a                	lw	a0,160(sp)
    8000038c:	552a                	lw	a0,168(sp)
    8000038e:	554a                	lw	a0,176(sp)
    80000390:	556a                	lw	a0,184(sp)
    80000392:	450e                	lw	a0,192(sp)
    80000394:	452e                	lw	a0,200(sp)
    80000396:	454e                	lw	a0,208(sp)
    80000398:	456e                	lw	a0,216(sp)
    8000039a:	550e                	lw	a0,224(sp)
    8000039c:	552e                	lw	a0,232(sp)
    8000039e:	554e                	lw	a0,240(sp)
    800003a0:	556e                	lw	a0,248(sp)

00000000800003a2 <load_freg_nax>:
    800003a2:	0001a507          	flw	fa0,0(gp)
    800003a6:	0081a507          	flw	fa0,8(gp)
    800003aa:	0101a507          	flw	fa0,16(gp)
    800003ae:	0181a507          	flw	fa0,24(gp)
    800003b2:	0201a507          	flw	fa0,32(gp)
    800003b6:	0281a507          	flw	fa0,40(gp)
    800003ba:	0301a507          	flw	fa0,48(gp)
    800003be:	0381a507          	flw	fa0,56(gp)
    800003c2:	0401a507          	flw	fa0,64(gp)
    800003c6:	0481a507          	flw	fa0,72(gp)
    800003ca:	0501a507          	flw	fa0,80(gp)
    800003ce:	0581a507          	flw	fa0,88(gp)
    800003d2:	0601a507          	flw	fa0,96(gp)
    800003d6:	0681a507          	flw	fa0,104(gp)
    800003da:	0701a507          	flw	fa0,112(gp)
    800003de:	0781a507          	flw	fa0,120(gp)
    800003e2:	0801a507          	flw	fa0,128(gp)
    800003e6:	0881a507          	flw	fa0,136(gp)
    800003ea:	0901a507          	flw	fa0,144(gp)
    800003ee:	0981a507          	flw	fa0,152(gp)
    800003f2:	0a01a507          	flw	fa0,160(gp)
    800003f6:	0a81a507          	flw	fa0,168(gp)
    800003fa:	0b01a507          	flw	fa0,176(gp)
    800003fe:	0b81a507          	flw	fa0,184(gp)
    80000402:	0c01a507          	flw	fa0,192(gp)
    80000406:	0c81a507          	flw	fa0,200(gp)
    8000040a:	0d01a507          	flw	fa0,208(gp)
    8000040e:	0d81a507          	flw	fa0,216(gp)
    80000412:	0e01a507          	flw	fa0,224(gp)
    80000416:	0e81a507          	flw	fa0,232(gp)
    8000041a:	0f01a507          	flw	fa0,240(gp)
    8000041e:	0f81a507          	flw	fa0,248(gp)

0000000080000422 <load_csr_nax>:
    80000422:	0000a503          	lw	a0,0(ra)
    80000426:	0080a503          	lw	a0,8(ra)
    8000042a:	0100a503          	lw	a0,16(ra)
    8000042e:	0180a503          	lw	a0,24(ra)
    80000432:	0200a503          	lw	a0,32(ra)
    80000436:	0280a503          	lw	a0,40(ra)
    8000043a:	0300a503          	lw	a0,48(ra)
    8000043e:	0380a503          	lw	a0,56(ra)
    80000442:	0400a503          	lw	a0,64(ra)
    80000446:	0480a503          	lw	a0,72(ra)
    8000044a:	0500a503          	lw	a0,80(ra)
    8000044e:	0580a503          	lw	a0,88(ra)
    80000452:	0600a503          	lw	a0,96(ra)
    80000456:	0680a503          	lw	a0,104(ra)
    8000045a:	0700a503          	lw	a0,112(ra)
    8000045e:	0780a503          	lw	a0,120(ra)
    80000462:	0800a503          	lw	a0,128(ra)
    80000466:	0880a503          	lw	a0,136(ra)
    8000046a:	0900a503          	lw	a0,144(ra)
    8000046e:	0980a503          	lw	a0,152(ra)
    80000472:	0a00a503          	lw	a0,160(ra)
    80000476:	0a80a503          	lw	a0,168(ra)
    8000047a:	0b00a503          	lw	a0,176(ra)
    8000047e:	0b80a503          	lw	a0,184(ra)
    80000482:	0c00a503          	lw	a0,192(ra)
    80000486:	0c80a503          	lw	a0,200(ra)
    8000048a:	0d00a503          	lw	a0,208(ra)
    8000048e:	0d80a503          	lw	a0,216(ra)
    80000492:	0e00a503          	lw	a0,224(ra)
    80000496:	0e80a503          	lw	a0,232(ra)
    8000049a:	0f00a503          	lw	a0,240(ra)
    8000049e:	0f80a503          	lw	a0,248(ra)
    800004a2:	1000a503          	lw	a0,256(ra)
    800004a6:	1080a503          	lw	a0,264(ra)
    800004aa:	1100a503          	lw	a0,272(ra)
    800004ae:	1180a503          	lw	a0,280(ra)
    800004b2:	1200a503          	lw	a0,288(ra)
    800004b6:	1280a503          	lw	a0,296(ra)
    800004ba:	1300a503          	lw	a0,304(ra)
    800004be:	1380a503          	lw	a0,312(ra)
    800004c2:	1400a503          	lw	a0,320(ra)
    800004c6:	1480a503          	lw	a0,328(ra)
    800004ca:	1500a503          	lw	a0,336(ra)
    800004ce:	1580a503          	lw	a0,344(ra)
    800004d2:	1600a503          	lw	a0,352(ra)
    800004d6:	1680a503          	lw	a0,360(ra)
    800004da:	1700a503          	lw	a0,368(ra)
    800004de:	1780a503          	lw	a0,376(ra)
    800004e2:	1800a503          	lw	a0,384(ra)
    800004e6:	1880a503          	lw	a0,392(ra)
    800004ea:	1900a503          	lw	a0,400(ra)
    800004ee:	1980a503          	lw	a0,408(ra)
    800004f2:	1a00a503          	lw	a0,416(ra)
    800004f6:	1a80a503          	lw	a0,424(ra)
    800004fa:	1b00a503          	lw	a0,432(ra)
    800004fe:	1b80a503          	lw	a0,440(ra)
    80000502:	1c00a503          	lw	a0,448(ra)
    80000506:	1c80a503          	lw	a0,456(ra)
    8000050a:	1d00a503          	lw	a0,464(ra)
    8000050e:	1d80a503          	lw	a0,472(ra)

0000000080000512 <load_raddom_data0_nax>:
    80000512:	00023503          	ld	a0,0(tp) # 0 <_start-0x80000000>
    80000516:	00823503          	ld	a0,8(tp) # 8 <_start-0x7ffffff8>
    8000051a:	01023503          	ld	a0,16(tp) # 10 <_start-0x7ffffff0>
    8000051e:	01823503          	ld	a0,24(tp) # 18 <_start-0x7fffffe8>
    80000522:	02023503          	ld	a0,32(tp) # 20 <_start-0x7fffffe0>
    80000526:	02823503          	ld	a0,40(tp) # 28 <_start-0x7fffffd8>
    8000052a:	03023503          	ld	a0,48(tp) # 30 <_start-0x7fffffd0>
    8000052e:	03823503          	ld	a0,56(tp) # 38 <_start-0x7fffffc8>
    80000532:	04023503          	ld	a0,64(tp) # 40 <_start-0x7fffffc0>
    80000536:	04823503          	ld	a0,72(tp) # 48 <_start-0x7fffffb8>
    8000053a:	05023503          	ld	a0,80(tp) # 50 <_start-0x7fffffb0>
    8000053e:	05823503          	ld	a0,88(tp) # 58 <_start-0x7fffffa8>
    80000542:	06023503          	ld	a0,96(tp) # 60 <_start-0x7fffffa0>
    80000546:	06823503          	ld	a0,104(tp) # 68 <_start-0x7fffff98>
    8000054a:	07023503          	ld	a0,112(tp) # 70 <_start-0x7fffff90>
    8000054e:	07823503          	ld	a0,120(tp) # 78 <_start-0x7fffff88>
    80000552:	08023503          	ld	a0,128(tp) # 80 <_start-0x7fffff80>
    80000556:	08823503          	ld	a0,136(tp) # 88 <_start-0x7fffff78>
    8000055a:	09023503          	ld	a0,144(tp) # 90 <_start-0x7fffff70>
    8000055e:	09823503          	ld	a0,152(tp) # 98 <_start-0x7fffff68>
    80000562:	0a023503          	ld	a0,160(tp) # a0 <_start-0x7fffff60>
    80000566:	0a823503          	ld	a0,168(tp) # a8 <_start-0x7fffff58>
    8000056a:	0b023503          	ld	a0,176(tp) # b0 <_start-0x7fffff50>
    8000056e:	0b823503          	ld	a0,184(tp) # b8 <_start-0x7fffff48>
    80000572:	0c023503          	ld	a0,192(tp) # c0 <_start-0x7fffff40>
    80000576:	0c823503          	ld	a0,200(tp) # c8 <_start-0x7fffff38>
    8000057a:	0d023503          	ld	a0,208(tp) # d0 <_start-0x7fffff30>
    8000057e:	0d823503          	ld	a0,216(tp) # d8 <_start-0x7fffff28>
    80000582:	0e023503          	ld	a0,224(tp) # e0 <_start-0x7fffff20>
    80000586:	0e823503          	ld	a0,232(tp) # e8 <_start-0x7fffff18>
    8000058a:	0f023503          	ld	a0,240(tp) # f0 <_start-0x7fffff10>
    8000058e:	0f823503          	ld	a0,248(tp) # f8 <_start-0x7fffff08>
    80000592:	10023503          	ld	a0,256(tp) # 100 <_start-0x7fffff00>
    80000596:	10823503          	ld	a0,264(tp) # 108 <_start-0x7ffffef8>
    8000059a:	11023503          	ld	a0,272(tp) # 110 <_start-0x7ffffef0>
    8000059e:	11823503          	ld	a0,280(tp) # 118 <_start-0x7ffffee8>
    800005a2:	12023503          	ld	a0,288(tp) # 120 <_start-0x7ffffee0>
    800005a6:	12823503          	ld	a0,296(tp) # 128 <_start-0x7ffffed8>
    800005aa:	13023503          	ld	a0,304(tp) # 130 <_start-0x7ffffed0>
    800005ae:	13823503          	ld	a0,312(tp) # 138 <_start-0x7ffffec8>
    800005b2:	14023503          	ld	a0,320(tp) # 140 <_start-0x7ffffec0>
    800005b6:	14823503          	ld	a0,328(tp) # 148 <_start-0x7ffffeb8>
    800005ba:	15023503          	ld	a0,336(tp) # 150 <_start-0x7ffffeb0>
    800005be:	15823503          	ld	a0,344(tp) # 158 <_start-0x7ffffea8>
    800005c2:	16023503          	ld	a0,352(tp) # 160 <_start-0x7ffffea0>
    800005c6:	16823503          	ld	a0,360(tp) # 168 <_start-0x7ffffe98>
    800005ca:	17023503          	ld	a0,368(tp) # 170 <_start-0x7ffffe90>
    800005ce:	17823503          	ld	a0,376(tp) # 178 <_start-0x7ffffe88>
    800005d2:	18023503          	ld	a0,384(tp) # 180 <_start-0x7ffffe80>
    800005d6:	18823503          	ld	a0,392(tp) # 188 <_start-0x7ffffe78>
    800005da:	19023503          	ld	a0,400(tp) # 190 <_start-0x7ffffe70>
    800005de:	19823503          	ld	a0,408(tp) # 198 <_start-0x7ffffe68>
    800005e2:	1a023503          	ld	a0,416(tp) # 1a0 <_start-0x7ffffe60>
    800005e6:	1a823503          	ld	a0,424(tp) # 1a8 <_start-0x7ffffe58>
    800005ea:	1b023503          	ld	a0,432(tp) # 1b0 <_start-0x7ffffe50>
    800005ee:	1b823503          	ld	a0,440(tp) # 1b8 <_start-0x7ffffe48>
    800005f2:	1c023503          	ld	a0,448(tp) # 1c0 <_start-0x7ffffe40>
    800005f6:	1c823503          	ld	a0,456(tp) # 1c8 <_start-0x7ffffe38>
    800005fa:	1d023503          	ld	a0,464(tp) # 1d0 <_start-0x7ffffe30>
    800005fe:	1d823503          	ld	a0,472(tp) # 1d8 <_start-0x7ffffe28>
    80000602:	1e023503          	ld	a0,480(tp) # 1e0 <_start-0x7ffffe20>
    80000606:	1e823503          	ld	a0,488(tp) # 1e8 <_start-0x7ffffe18>
    8000060a:	1f023503          	ld	a0,496(tp) # 1f0 <_start-0x7ffffe10>
    8000060e:	1f823503          	ld	a0,504(tp) # 1f8 <_start-0x7ffffe08>

0000000080000612 <load_raddom_data1_nax>:
    80000612:	0002b503          	ld	a0,0(t0)
    80000616:	0082b503          	ld	a0,8(t0)
    8000061a:	0102b503          	ld	a0,16(t0)
    8000061e:	0182b503          	ld	a0,24(t0)
    80000622:	0202b503          	ld	a0,32(t0)
    80000626:	0282b503          	ld	a0,40(t0)
    8000062a:	0302b503          	ld	a0,48(t0)
    8000062e:	0382b503          	ld	a0,56(t0)
    80000632:	0402b503          	ld	a0,64(t0)
    80000636:	0482b503          	ld	a0,72(t0)
    8000063a:	0502b503          	ld	a0,80(t0)
    8000063e:	0582b503          	ld	a0,88(t0)
    80000642:	0602b503          	ld	a0,96(t0)
    80000646:	0682b503          	ld	a0,104(t0)
    8000064a:	0702b503          	ld	a0,112(t0)
    8000064e:	0782b503          	ld	a0,120(t0)
    80000652:	0802b503          	ld	a0,128(t0)
    80000656:	0882b503          	ld	a0,136(t0)
    8000065a:	0902b503          	ld	a0,144(t0)
    8000065e:	0982b503          	ld	a0,152(t0)
    80000662:	0a02b503          	ld	a0,160(t0)
    80000666:	0a82b503          	ld	a0,168(t0)
    8000066a:	0b02b503          	ld	a0,176(t0)
    8000066e:	0b82b503          	ld	a0,184(t0)
    80000672:	0c02b503          	ld	a0,192(t0)
    80000676:	0c82b503          	ld	a0,200(t0)
    8000067a:	0d02b503          	ld	a0,208(t0)
    8000067e:	0d82b503          	ld	a0,216(t0)
    80000682:	0e02b503          	ld	a0,224(t0)
    80000686:	0e82b503          	ld	a0,232(t0)
    8000068a:	0f02b503          	ld	a0,240(t0)
    8000068e:	0f82b503          	ld	a0,248(t0)
    80000692:	1002b503          	ld	a0,256(t0)
    80000696:	1082b503          	ld	a0,264(t0)
    8000069a:	1102b503          	ld	a0,272(t0)
    8000069e:	1182b503          	ld	a0,280(t0)
    800006a2:	1202b503          	ld	a0,288(t0)
    800006a6:	1282b503          	ld	a0,296(t0)
    800006aa:	1302b503          	ld	a0,304(t0)
    800006ae:	1382b503          	ld	a0,312(t0)
    800006b2:	1402b503          	ld	a0,320(t0)
    800006b6:	1482b503          	ld	a0,328(t0)
    800006ba:	1502b503          	ld	a0,336(t0)
    800006be:	1582b503          	ld	a0,344(t0)
    800006c2:	1602b503          	ld	a0,352(t0)
    800006c6:	1682b503          	ld	a0,360(t0)
    800006ca:	1702b503          	ld	a0,368(t0)
    800006ce:	1782b503          	ld	a0,376(t0)
    800006d2:	1802b503          	ld	a0,384(t0)
    800006d6:	1882b503          	ld	a0,392(t0)
    800006da:	1902b503          	ld	a0,400(t0)
    800006de:	1982b503          	ld	a0,408(t0)
    800006e2:	1a02b503          	ld	a0,416(t0)
    800006e6:	1a82b503          	ld	a0,424(t0)
    800006ea:	1b02b503          	ld	a0,432(t0)
    800006ee:	1b82b503          	ld	a0,440(t0)
    800006f2:	1c02b503          	ld	a0,448(t0)
    800006f6:	1c82b503          	ld	a0,456(t0)
    800006fa:	1d02b503          	ld	a0,464(t0)
    800006fe:	1d82b503          	ld	a0,472(t0)
    80000702:	1e02b503          	ld	a0,480(t0)
    80000706:	1e82b503          	ld	a0,488(t0)
    8000070a:	1f02b503          	ld	a0,496(t0)
    8000070e:	1f82b503          	ld	a0,504(t0)

0000000080000712 <load_raddom_data2_nax>:
    80000712:	00033503          	ld	a0,0(t1)
    80000716:	00833503          	ld	a0,8(t1)
    8000071a:	01033503          	ld	a0,16(t1)
    8000071e:	01833503          	ld	a0,24(t1)
    80000722:	02033503          	ld	a0,32(t1)
    80000726:	02833503          	ld	a0,40(t1)
    8000072a:	03033503          	ld	a0,48(t1)
    8000072e:	03833503          	ld	a0,56(t1)
    80000732:	04033503          	ld	a0,64(t1)
    80000736:	04833503          	ld	a0,72(t1)
    8000073a:	05033503          	ld	a0,80(t1)
    8000073e:	05833503          	ld	a0,88(t1)
    80000742:	06033503          	ld	a0,96(t1)
    80000746:	06833503          	ld	a0,104(t1)
    8000074a:	07033503          	ld	a0,112(t1)
    8000074e:	07833503          	ld	a0,120(t1)
    80000752:	08033503          	ld	a0,128(t1)
    80000756:	08833503          	ld	a0,136(t1)
    8000075a:	09033503          	ld	a0,144(t1)
    8000075e:	09833503          	ld	a0,152(t1)
    80000762:	0a033503          	ld	a0,160(t1)
    80000766:	0a833503          	ld	a0,168(t1)
    8000076a:	0b033503          	ld	a0,176(t1)
    8000076e:	0b833503          	ld	a0,184(t1)
    80000772:	0c033503          	ld	a0,192(t1)
    80000776:	0c833503          	ld	a0,200(t1)
    8000077a:	0d033503          	ld	a0,208(t1)
    8000077e:	0d833503          	ld	a0,216(t1)
    80000782:	0e033503          	ld	a0,224(t1)
    80000786:	0e833503          	ld	a0,232(t1)
    8000078a:	0f033503          	ld	a0,240(t1)
    8000078e:	0f833503          	ld	a0,248(t1)
    80000792:	10033503          	ld	a0,256(t1)
    80000796:	10833503          	ld	a0,264(t1)
    8000079a:	11033503          	ld	a0,272(t1)
    8000079e:	11833503          	ld	a0,280(t1)
    800007a2:	12033503          	ld	a0,288(t1)
    800007a6:	12833503          	ld	a0,296(t1)
    800007aa:	13033503          	ld	a0,304(t1)
    800007ae:	13833503          	ld	a0,312(t1)
    800007b2:	14033503          	ld	a0,320(t1)
    800007b6:	14833503          	ld	a0,328(t1)
    800007ba:	15033503          	ld	a0,336(t1)
    800007be:	15833503          	ld	a0,344(t1)
    800007c2:	16033503          	ld	a0,352(t1)
    800007c6:	16833503          	ld	a0,360(t1)
    800007ca:	17033503          	ld	a0,368(t1)
    800007ce:	17833503          	ld	a0,376(t1)
    800007d2:	18033503          	ld	a0,384(t1)
    800007d6:	18833503          	ld	a0,392(t1)
    800007da:	19033503          	ld	a0,400(t1)
    800007de:	19833503          	ld	a0,408(t1)
    800007e2:	1a033503          	ld	a0,416(t1)
    800007e6:	1a833503          	ld	a0,424(t1)
    800007ea:	1b033503          	ld	a0,432(t1)
    800007ee:	1b833503          	ld	a0,440(t1)
    800007f2:	1c033503          	ld	a0,448(t1)
    800007f6:	1c833503          	ld	a0,456(t1)
    800007fa:	1d033503          	ld	a0,464(t1)
    800007fe:	1d833503          	ld	a0,472(t1)
    80000802:	1e033503          	ld	a0,480(t1)
    80000806:	1e833503          	ld	a0,488(t1)
    8000080a:	1f033503          	ld	a0,496(t1)
    8000080e:	1f833503          	ld	a0,504(t1)

0000000080000812 <load_raddom_data3_nax>:
    80000812:	0003b503          	ld	a0,0(t2)
    80000816:	0083b503          	ld	a0,8(t2)
    8000081a:	0103b503          	ld	a0,16(t2)
    8000081e:	0183b503          	ld	a0,24(t2)
    80000822:	0203b503          	ld	a0,32(t2)
    80000826:	0283b503          	ld	a0,40(t2)
    8000082a:	0303b503          	ld	a0,48(t2)
    8000082e:	0383b503          	ld	a0,56(t2)
    80000832:	0403b503          	ld	a0,64(t2)
    80000836:	0483b503          	ld	a0,72(t2)
    8000083a:	0503b503          	ld	a0,80(t2)
    8000083e:	0583b503          	ld	a0,88(t2)
    80000842:	0603b503          	ld	a0,96(t2)
    80000846:	0683b503          	ld	a0,104(t2)
    8000084a:	0703b503          	ld	a0,112(t2)
    8000084e:	0783b503          	ld	a0,120(t2)
    80000852:	0803b503          	ld	a0,128(t2)
    80000856:	0883b503          	ld	a0,136(t2)
    8000085a:	0903b503          	ld	a0,144(t2)
    8000085e:	0983b503          	ld	a0,152(t2)
    80000862:	0a03b503          	ld	a0,160(t2)
    80000866:	0a83b503          	ld	a0,168(t2)
    8000086a:	0b03b503          	ld	a0,176(t2)
    8000086e:	0b83b503          	ld	a0,184(t2)
    80000872:	0c03b503          	ld	a0,192(t2)
    80000876:	0c83b503          	ld	a0,200(t2)
    8000087a:	0d03b503          	ld	a0,208(t2)
    8000087e:	0d83b503          	ld	a0,216(t2)
    80000882:	0e03b503          	ld	a0,224(t2)
    80000886:	0e83b503          	ld	a0,232(t2)
    8000088a:	0f03b503          	ld	a0,240(t2)
    8000088e:	0f83b503          	ld	a0,248(t2)
    80000892:	1003b503          	ld	a0,256(t2)
    80000896:	1083b503          	ld	a0,264(t2)
    8000089a:	1103b503          	ld	a0,272(t2)
    8000089e:	1183b503          	ld	a0,280(t2)
    800008a2:	1203b503          	ld	a0,288(t2)
    800008a6:	1283b503          	ld	a0,296(t2)
    800008aa:	1303b503          	ld	a0,304(t2)
    800008ae:	1383b503          	ld	a0,312(t2)
    800008b2:	1403b503          	ld	a0,320(t2)
    800008b6:	1483b503          	ld	a0,328(t2)
    800008ba:	1503b503          	ld	a0,336(t2)
    800008be:	1583b503          	ld	a0,344(t2)
    800008c2:	1603b503          	ld	a0,352(t2)
    800008c6:	1683b503          	ld	a0,360(t2)
    800008ca:	1703b503          	ld	a0,368(t2)
    800008ce:	1783b503          	ld	a0,376(t2)
    800008d2:	1803b503          	ld	a0,384(t2)
    800008d6:	1883b503          	ld	a0,392(t2)
    800008da:	1903b503          	ld	a0,400(t2)
    800008de:	1983b503          	ld	a0,408(t2)
    800008e2:	1a03b503          	ld	a0,416(t2)
    800008e6:	1a83b503          	ld	a0,424(t2)
    800008ea:	1b03b503          	ld	a0,432(t2)
    800008ee:	1b83b503          	ld	a0,440(t2)
    800008f2:	1c03b503          	ld	a0,448(t2)
    800008f6:	1c83b503          	ld	a0,456(t2)
    800008fa:	1d03b503          	ld	a0,464(t2)
    800008fe:	1d83b503          	ld	a0,472(t2)
    80000902:	1e03b503          	ld	a0,480(t2)
    80000906:	1e83b503          	ld	a0,488(t2)
    8000090a:	1f03b503          	ld	a0,496(t2)
    8000090e:	1f83b503          	ld	a0,504(t2)

0000000080000912 <load_raddom_data4_nax>:
    80000912:	6008                	ld	a0,0(s0)
    80000914:	6408                	ld	a0,8(s0)
    80000916:	6808                	ld	a0,16(s0)
    80000918:	6c08                	ld	a0,24(s0)
    8000091a:	7008                	ld	a0,32(s0)
    8000091c:	7408                	ld	a0,40(s0)
    8000091e:	7808                	ld	a0,48(s0)
    80000920:	7c08                	ld	a0,56(s0)
    80000922:	6028                	ld	a0,64(s0)
    80000924:	6428                	ld	a0,72(s0)
    80000926:	6828                	ld	a0,80(s0)
    80000928:	6c28                	ld	a0,88(s0)
    8000092a:	7028                	ld	a0,96(s0)
    8000092c:	7428                	ld	a0,104(s0)
    8000092e:	7828                	ld	a0,112(s0)
    80000930:	7c28                	ld	a0,120(s0)
    80000932:	6048                	ld	a0,128(s0)
    80000934:	6448                	ld	a0,136(s0)
    80000936:	6848                	ld	a0,144(s0)
    80000938:	6c48                	ld	a0,152(s0)
    8000093a:	7048                	ld	a0,160(s0)
    8000093c:	7448                	ld	a0,168(s0)
    8000093e:	7848                	ld	a0,176(s0)
    80000940:	7c48                	ld	a0,184(s0)
    80000942:	6068                	ld	a0,192(s0)
    80000944:	6468                	ld	a0,200(s0)
    80000946:	6868                	ld	a0,208(s0)
    80000948:	6c68                	ld	a0,216(s0)
    8000094a:	7068                	ld	a0,224(s0)
    8000094c:	7468                	ld	a0,232(s0)
    8000094e:	7868                	ld	a0,240(s0)
    80000950:	7c68                	ld	a0,248(s0)
    80000952:	10043503          	ld	a0,256(s0)
    80000956:	10843503          	ld	a0,264(s0)
    8000095a:	11043503          	ld	a0,272(s0)
    8000095e:	11843503          	ld	a0,280(s0)
    80000962:	12043503          	ld	a0,288(s0)
    80000966:	12843503          	ld	a0,296(s0)
    8000096a:	13043503          	ld	a0,304(s0)
    8000096e:	13843503          	ld	a0,312(s0)
    80000972:	14043503          	ld	a0,320(s0)
    80000976:	14843503          	ld	a0,328(s0)
    8000097a:	15043503          	ld	a0,336(s0)
    8000097e:	15843503          	ld	a0,344(s0)
    80000982:	16043503          	ld	a0,352(s0)
    80000986:	16843503          	ld	a0,360(s0)
    8000098a:	17043503          	ld	a0,368(s0)
    8000098e:	17843503          	ld	a0,376(s0)
    80000992:	18043503          	ld	a0,384(s0)
    80000996:	18843503          	ld	a0,392(s0)
    8000099a:	19043503          	ld	a0,400(s0)
    8000099e:	19843503          	ld	a0,408(s0)
    800009a2:	1a043503          	ld	a0,416(s0)
    800009a6:	1a843503          	ld	a0,424(s0)
    800009aa:	1b043503          	ld	a0,432(s0)
    800009ae:	1b843503          	ld	a0,440(s0)
    800009b2:	1c043503          	ld	a0,448(s0)
    800009b6:	1c843503          	ld	a0,456(s0)
    800009ba:	1d043503          	ld	a0,464(s0)
    800009be:	1d843503          	ld	a0,472(s0)
    800009c2:	1e043503          	ld	a0,480(s0)
    800009c6:	1e843503          	ld	a0,488(s0)
    800009ca:	1f043503          	ld	a0,496(s0)
    800009ce:	1f843503          	ld	a0,504(s0)

00000000800009d2 <load_raddom_data5_nax>:
    800009d2:	6088                	ld	a0,0(s1)
    800009d4:	6488                	ld	a0,8(s1)
    800009d6:	6888                	ld	a0,16(s1)
    800009d8:	6c88                	ld	a0,24(s1)
    800009da:	7088                	ld	a0,32(s1)
    800009dc:	7488                	ld	a0,40(s1)
    800009de:	7888                	ld	a0,48(s1)
    800009e0:	7c88                	ld	a0,56(s1)
    800009e2:	60a8                	ld	a0,64(s1)
    800009e4:	64a8                	ld	a0,72(s1)
    800009e6:	68a8                	ld	a0,80(s1)
    800009e8:	6ca8                	ld	a0,88(s1)
    800009ea:	70a8                	ld	a0,96(s1)
    800009ec:	74a8                	ld	a0,104(s1)
    800009ee:	78a8                	ld	a0,112(s1)
    800009f0:	7ca8                	ld	a0,120(s1)
    800009f2:	60c8                	ld	a0,128(s1)
    800009f4:	64c8                	ld	a0,136(s1)
    800009f6:	68c8                	ld	a0,144(s1)
    800009f8:	6cc8                	ld	a0,152(s1)
    800009fa:	70c8                	ld	a0,160(s1)
    800009fc:	74c8                	ld	a0,168(s1)
    800009fe:	78c8                	ld	a0,176(s1)
    80000a00:	7cc8                	ld	a0,184(s1)
    80000a02:	60e8                	ld	a0,192(s1)
    80000a04:	64e8                	ld	a0,200(s1)
    80000a06:	68e8                	ld	a0,208(s1)
    80000a08:	6ce8                	ld	a0,216(s1)
    80000a0a:	70e8                	ld	a0,224(s1)
    80000a0c:	74e8                	ld	a0,232(s1)
    80000a0e:	78e8                	ld	a0,240(s1)
    80000a10:	7ce8                	ld	a0,248(s1)
    80000a12:	1004b503          	ld	a0,256(s1)
    80000a16:	1084b503          	ld	a0,264(s1)
    80000a1a:	1104b503          	ld	a0,272(s1)
    80000a1e:	1184b503          	ld	a0,280(s1)
    80000a22:	1204b503          	ld	a0,288(s1)
    80000a26:	1284b503          	ld	a0,296(s1)
    80000a2a:	1304b503          	ld	a0,304(s1)
    80000a2e:	1384b503          	ld	a0,312(s1)
    80000a32:	1404b503          	ld	a0,320(s1)
    80000a36:	1484b503          	ld	a0,328(s1)
    80000a3a:	1504b503          	ld	a0,336(s1)
    80000a3e:	1584b503          	ld	a0,344(s1)
    80000a42:	1604b503          	ld	a0,352(s1)
    80000a46:	1684b503          	ld	a0,360(s1)
    80000a4a:	1704b503          	ld	a0,368(s1)
    80000a4e:	1784b503          	ld	a0,376(s1)
    80000a52:	1804b503          	ld	a0,384(s1)
    80000a56:	1884b503          	ld	a0,392(s1)
    80000a5a:	1904b503          	ld	a0,400(s1)
    80000a5e:	1984b503          	ld	a0,408(s1)
    80000a62:	1a04b503          	ld	a0,416(s1)
    80000a66:	1a84b503          	ld	a0,424(s1)
    80000a6a:	1b04b503          	ld	a0,432(s1)
    80000a6e:	1b84b503          	ld	a0,440(s1)
    80000a72:	1c04b503          	ld	a0,448(s1)
    80000a76:	1c84b503          	ld	a0,456(s1)
    80000a7a:	1d04b503          	ld	a0,464(s1)
    80000a7e:	1d84b503          	ld	a0,472(s1)
    80000a82:	1e04b503          	ld	a0,480(s1)
    80000a86:	1e84b503          	ld	a0,488(s1)
    80000a8a:	1f04b503          	ld	a0,496(s1)
    80000a8e:	1f84b503          	ld	a0,504(s1)

0000000080000a92 <write_tohost>:
    80000a92:	4185                	li	gp,1
    80000a94:	00000f17          	auipc	t5,0x0
    80000a98:	563f2623          	sw	gp,1388(t5) # 80001000 <tohost>

0000000080000a9c <_test_end>:
    80000a9c:	a001                	j	80000a9c <_test_end>
    80000a9e:	0001                	nop

0000000080000aa0 <reset_vector>:
    80000aa0:	30005073          	csrw	mstatus,0
    80000aa4:	f1402573          	csrr	a0,mhartid
    80000aa8:	e101                	bnez	a0,80000aa8 <reset_vector+0x8>
    80000aaa:	00000297          	auipc	t0,0x0
    80000aae:	01a28293          	add	t0,t0,26 # 80000ac4 <reset_vector+0x24>
    80000ab2:	30529073          	csrw	mtvec,t0
    80000ab6:	30205073          	csrw	medeleg,0
    80000aba:	30305073          	csrw	mideleg,0
    80000abe:	30405073          	csrw	mie,0
    80000ac2:	0001                	nop
    80000ac4:	00000297          	auipc	t0,0x0
    80000ac8:	01028293          	add	t0,t0,16 # 80000ad4 <reset_vector+0x34>
    80000acc:	30529073          	csrw	mtvec,t0
    80000ad0:	18005073          	csrw	satp,0
    80000ad4:	fffff297          	auipc	t0,0xfffff
    80000ad8:	65c28293          	add	t0,t0,1628 # 80000130 <csr_dump>
    80000adc:	30529073          	csrw	mtvec,t0
    80000ae0:	4181                	li	gp,0
    80000ae2:	4505                	li	a0,1
    80000ae4:	057e                	sll	a0,a0,0x1f
    80000ae6:	00055a63          	bgez	a0,80000afa <reset_vector+0x5a>
    80000aea:	0ff0000f          	fence
    80000aee:	4185                	li	gp,1
    80000af0:	05d00893          	li	a7,93
    80000af4:	4501                	li	a0,0
    80000af6:	00000073          	ecall
    80000afa:	fffff297          	auipc	t0,0xfffff
    80000afe:	62628293          	add	t0,t0,1574 # 80000120 <trap_stvec>
    80000b02:	10529073          	csrw	stvec,t0
    80000b06:	62ad                	lui	t0,0xb
    80000b08:	1092829b          	addw	t0,t0,265 # b109 <_start-0x7fff4ef7>
    80000b0c:	3022a073          	csrs	medeleg,t0
    80000b10:	6521                	lui	a0,0x8
    80000b12:	8005051b          	addw	a0,a0,-2048 # 7800 <_start-0x7fff8800>
    80000b16:	30052073          	csrs	mstatus,a0
    80000b1a:	00305073          	csrw	fcsr,0
    80000b1e:	d6aff0ef          	jal	80000088 <init_freg>
    80000b22:	b0201073          	csrw	minstret,zero
    80000b26:	f1402573          	csrr	a0,mhartid

0000000080000b2a <_fuzz_prefix>:
    80000b2a:	8f39                	xor	a4,a4,a4
    80000b2c:	458d                	li	a1,3
    80000b2e:	05ca                	sll	a1,a1,0x12
    80000b30:	972e                	add	a4,a4,a1
    80000b32:	4605                	li	a2,1
    80000b34:	0612                	sll	a2,a2,0x4
    80000b36:	9732                	add	a4,a4,a2
    80000b38:	14271573          	csrrw	a0,scause,a4

0000000080000b3c <_p1>:
    80000b3c:	180066f3          	csrrs	a3,satp,0

0000000080000b40 <_p2>:
    80000b40:	3001d573          	csrrw	a0,mstatus,3

0000000080000b44 <_end_prefix>:
    80000b44:	00000297          	auipc	t0,0x0
    80000b48:	03c28293          	add	t0,t0,60 # 80000b80 <_fuzz_main>
    80000b4c:	34129073          	csrw	mepc,t0
    80000b50:	4281                	li	t0,0
    80000b52:	30200073          	mret
    80000b56:	00000013          	nop
    80000b5a:	00000013          	nop
    80000b5e:	00000013          	nop
    80000b62:	00000013          	nop
    80000b66:	00000013          	nop
    80000b6a:	00000013          	nop
    80000b6e:	00000013          	nop
    80000b72:	00000013          	nop
    80000b76:	00000013          	nop
    80000b7a:	00000013          	nop
    80000b7e:	0001                	nop

0000000080000b80 <_fuzz_main>:
    80000b80:	9aa0f413          	and	s0,ra,-1622

0000000080000b84 <_l1>:
    80000b84:	b8abcf43          	fmadd.s	ft10,fs7,fa0,fs7,rmm

0000000080000b88 <_l2>:
    80000b88:	a37f0453          	fle.d	s0,ft10,fs7

0000000080000b8c <_l3>:
    80000b8c:	d22ba653          	fcvt.d.l	fa2,s7,rdn

0000000080000b90 <_l4>:
    80000b90:	40a085bb          	subw	a1,ra,a0

0000000080000b94 <_l5>:
    80000b94:	d2230253          	fcvt.d.l	ft4,t1,rne

0000000080000b98 <_l6>:
    80000b98:	01ce4e33          	xor	t3,t3,t3
    80000b9c:	420d                	li	tp,3
    80000b9e:	0216                	sll	tp,tp,0x5
    80000ba0:	9e12                	add	t3,t3,tp
    80000ba2:	4105                	li	sp,1
    80000ba4:	014a                	sll	sp,sp,0x12
    80000ba6:	9e0a                	add	t3,t3,sp
    80000ba8:	4b85                	li	s7,1
    80000baa:	0bde                	sll	s7,s7,0x17
    80000bac:	9e5e                	add	t3,t3,s7
    80000bae:	142e2373          	csrrs	t1,scause,t3

0000000080000bb2 <_l7>:
    80000bb2:	0002f297          	auipc	t0,0x2f
    80000bb6:	60e28293          	add	t0,t0,1550 # 800301c0 <d_2_26>
    80000bba:	00029503          	lh	a0,0(t0)

0000000080000bbe <_l8>:
    80000bbe:	b345974b          	fnmsub.d	fa4,fa1,fs4,fs6,rtz

0000000080000bc2 <_l9>:
    80000bc2:	143fe273          	csrrs	tp,stval,31

0000000080000bc6 <_l10>:
    80000bc6:	02124333          	div	t1,tp,ra

0000000080000bca <_l11>:
    80000bca:	21ec1053          	fsgnjn.s	ft0,fs8,ft10

0000000080000bce <_l12>:
    80000bce:	00000597          	auipc	a1,0x0
    80000bd2:	16a58593          	add	a1,a1,362 # 80000d38 <_l67>
    80000bd6:	000587e7          	jalr	a5,a1

0000000080000bda <_l13>:
    80000bda:	00000f17          	auipc	t5,0x0
    80000bde:	014f0f13          	add	t5,t5,20 # 80000bee <_l16>
    80000be2:	01cf1783          	lh	a5,28(t5)

0000000080000be6 <_l14>:
    80000be6:	138032d3          	fmul.d	ft5,ft0,fs8,rup

0000000080000bea <_l15>:
    80000bea:	02a7b053          	fadd.d	ft0,fa5,fa0,rup

0000000080000bee <_l16>:
    80000bee:	01d7d13b          	srlw	sp,a5,t4

0000000080000bf2 <_l17>:
    80000bf2:	03720a63          	beq	tp,s7,80000c26 <_l27>

0000000080000bf6 <_l18>:
    80000bf6:	037e06b3          	mul	a3,t3,s7

0000000080000bfa <_l19>:
    80000bfa:	285b8a53          	fmin.s	fs4,fs7,ft5

0000000080000bfe <_l20>:
    80000bfe:	03157db3          	remu	s11,a0,a7

0000000080000c02 <_l21>:
    80000c02:	4c81                	li	s9,0
    80000c04:	00001297          	auipc	t0,0x1
    80000c08:	7dc28293          	add	t0,t0,2012 # 800023e0 <end_signature>
    80000c0c:	02e1                	add	t0,t0,24
    80000c0e:	125c8073          	sfence.vma	s9,t0

0000000080000c12 <_l22>:
    80000c12:	d8531bcb          	fnmsub.s	fs7,ft6,ft5,fs11,rtz

0000000080000c16 <_l23>:
    80000c16:	02b488bb          	mulw	a7,s1,a1

0000000080000c1a <_l24>:
    80000c1a:	00000eb7          	lui	t4,0x0

0000000080000c1e <_l25>:
    80000c1e:	d01f28d3          	fcvt.s.wu	fa7,t5,rdn

0000000080000c22 <_l26>:
    80000c22:	0800a953          	fsub.s	fs2,ft1,ft0,rdn

0000000080000c26 <_l27>:
    80000c26:	20ed25c7          	fmsub.s	fa1,fs10,fa4,ft4,rdn

0000000080000c2a <_l28>:
    80000c2a:	0003f797          	auipc	a5,0x3f
    80000c2e:	49678793          	add	a5,a5,1174 # 800400c0 <d_3_10>
    80000c32:	0087ab83          	lw	s7,8(a5)

0000000080000c36 <_l29>:
    80000c36:	226b01d3          	fsgnj.d	ft3,fs6,ft6

0000000080000c3a <_l30>:
    80000c3a:	019cccb3          	xor	s9,s9,s9
    80000c3e:	142caa73          	csrrs	s4,scause,s9

0000000080000c42 <_l31>:
    80000c42:	005d97bb          	sllw	a5,s11,t0

0000000080000c46 <_l32>:
    80000c46:	01a70ebb          	addw	t4,a4,s10

0000000080000c4a <_l33>:
    80000c4a:	20a30f53          	fsgnj.s	ft10,ft6,fa0

0000000080000c4e <_l34>:
    80000c4e:	09ee7e13          	and	t3,t3,158

0000000080000c52 <_l35>:
    80000c52:	302e67f3          	csrrs	a5,medeleg,28

0000000080000c56 <_l36>:
    80000c56:	0003fa17          	auipc	s4,0x3f
    80000c5a:	46aa0a13          	add	s4,s4,1130 # 800400c0 <d_3_10>
    80000c5e:	ffba3823          	sd	s11,-16(s4)

0000000080000c62 <_l37>:
    80000c62:	d019a2d3          	fcvt.s.wu	ft5,s3,rdn

0000000080000c66 <_l38>:
    80000c66:	e0070153          	fmv.x.w	sp,fa4

0000000080000c6a <_l39>:
    80000c6a:	0000f417          	auipc	s0,0xf
    80000c6e:	42640413          	add	s0,s0,1062 # 80010090 <d_0_7>
    80000c72:	00b41023          	sh	a1,0(s0)

0000000080000c76 <_l40>:
    80000c76:	131487c7          	fmsub.d	fa5,fs1,fa7,ft2,rne

0000000080000c7a <_l41>:
    80000c7a:	20f7afd3          	fabs.s	ft11,fa5

0000000080000c7e <_l42>:
    80000c7e:	0003f797          	auipc	a5,0x3f
    80000c82:	4a278793          	add	a5,a5,1186 # 80040120 <d_3_16>
    80000c86:	87be                	mv	a5,a5
    80000c88:	41e7a1af          	amoor.w	gp,t5,(a5)

0000000080000c8c <_l43>:
    80000c8c:	9002                	ebreak

0000000080000c8e <_l44>:
    80000c8e:	0003fa17          	auipc	s4,0x3f
    80000c92:	3d2a0a13          	add	s4,s4,978 # 80040060 <d_3_4>
    80000c96:	0a41                	add	s4,s4,16
    80000c98:	c01a252f          	amominu.w	a0,ra,(s4)

0000000080000c9c <_l45>:
    80000c9c:	28be9547          	fmsub.s	fa0,ft9,fa1,ft5,rtz

0000000080000ca0 <_l46>:
    80000ca0:	0000f717          	auipc	a4,0xf
    80000ca4:	52070713          	add	a4,a4,1312 # 800101c0 <d_0_26>
    80000ca8:	ffa71a03          	lh	s4,-6(a4)

0000000080000cac <_l47>:
    80000cac:	001f7df3          	csrrc	s11,fflags,30

0000000080000cb0 <_l48>:
    80000cb0:	0001fc97          	auipc	s9,0x1f
    80000cb4:	420c8c93          	add	s9,s9,1056 # 800200d0 <d_1_11>
    80000cb8:	ffacaa23          	sw	s10,-12(s9)

0000000080000cbc <_l49>:
    80000cbc:	00000497          	auipc	s1,0x0
    80000cc0:	02248493          	add	s1,s1,34 # 80000cde <_l52>
    80000cc4:	34149073          	csrw	mepc,s1
    80000cc8:	30200073          	mret

0000000080000ccc <_l50>:
    80000ccc:	0001fd97          	auipc	s11,0x1f
    80000cd0:	394d8d93          	add	s11,s11,916 # 80020060 <d_1_4>
    80000cd4:	0da1                	add	s11,s11,8
    80000cd6:	804dbeaf          	amomin.d	t4,tp,(s11)

0000000080000cda <_l51>:
    80000cda:	13a90953          	fmul.d	fs2,fs2,fs10,rne

0000000080000cde <_l52>:
    80000cde:	05cee363          	bltu	t4,t3,80000d24 <_l62>

0000000080000ce2 <_l53>:
    80000ce2:	01fc141b          	sllw	s0,s8,0x1f

0000000080000ce6 <_l54>:
    80000ce6:	0004f797          	auipc	a5,0x4f
    80000cea:	46a78793          	add	a5,a5,1130 # 80050150 <d_4_19>
    80000cee:	17d1                	add	a5,a5,-12
    80000cf0:	ffe008b7          	lui	a7,0xffe00
    80000cf4:	0117c7b3          	xor	a5,a5,a7
    80000cf8:	6117abaf          	amoand.w	s7,a7,(a5)

0000000080000cfc <_l55>:
    80000cfc:	23ba15d3          	fsgnjn.d	fa1,fs4,fs11

0000000080000d00 <_l56>:
    80000d00:	223718d3          	fsgnjn.d	fa7,fa4,ft3

0000000080000d04 <_l57>:
    80000d04:	22f40bd3          	fsgnj.d	fs7,fs0,fa5

0000000080000d08 <_l58>:
    80000d08:	4012d5bb          	sraw	a1,t0,ra

0000000080000d0c <_l59>:
    80000d0c:	4605                	li	a2,1
    80000d0e:	00001297          	auipc	t0,0x1
    80000d12:	6d228293          	add	t0,t0,1746 # 800023e0 <end_signature>
    80000d16:	8296                	mv	t0,t0
    80000d18:	12560073          	sfence.vma	a2,t0

0000000080000d1c <_l60>:
    80000d1c:	0195f663          	bgeu	a1,s9,80000d28 <_l63>

0000000080000d20 <_l61>:
    80000d20:	d21688d3          	fcvt.d.wu	fa7,a3

0000000080000d24 <_l62>:
    80000d24:	2bb43e13          	sltiu	t3,s0,699

0000000080000d28 <_l63>:
    80000d28:	022c0533          	mul	a0,s8,sp

0000000080000d2c <_l64>:
    80000d2c:	a32a1f53          	flt.d	t5,fs4,fs2

0000000080000d30 <_l65>:
    80000d30:	c2181c53          	fcvt.wu.d	s8,fa6,rtz

0000000080000d34 <_l66>:
    80000d34:	7c7366b7          	lui	a3,0x7c736

0000000080000d38 <_l67>:
    80000d38:	0342acb3          	mulhsu	s9,t0,s4

0000000080000d3c <_l68>:
    80000d3c:	89414413          	xor	s0,sp,-1900

0000000080000d40 <_l69>:
    80000d40:	1107b553          	fmul.s	fa0,fa5,fa6,rup

0000000080000d44 <_l70>:
    80000d44:	0004f797          	auipc	a5,0x4f
    80000d48:	43c78793          	add	a5,a5,1084 # 80050180 <d_4_22>
    80000d4c:	fe87ad87          	flw	fs11,-24(a5)

0000000080000d50 <_l71>:
    80000d50:	28751853          	fmax.s	fa6,fa0,ft7

0000000080000d54 <_l72>:
    80000d54:	d224c3d3          	fcvt.d.l	ft7,s1,rmm

0000000080000d58 <_l73>:
    80000d58:	0002f117          	auipc	sp,0x2f
    80000d5c:	2e810113          	add	sp,sp,744 # 80030040 <d_2_2>
    80000d60:	810a                	mv	sp,sp
    80000d62:	81d1392f          	amomin.d	s2,t4,(sp)

0000000080000d66 <_l74>:
    80000d66:	0000f097          	auipc	ra,0xf
    80000d6a:	41a08093          	add	ra,ra,1050 # 80010180 <d_0_22>
    80000d6e:	00c1                	add	ra,ra,16
    80000d70:	0010a42f          	amoadd.w	s0,ra,(ra)

0000000080000d74 <_l75>:
    80000d74:	c21008d3          	fcvt.wu.d	a7,ft0,rne

0000000080000d78 <_l76>:
    80000d78:	104cee73          	csrrs	t3,sie,25

0000000080000d7c <_l77>:
    80000d7c:	0003fe97          	auipc	t4,0x3f
    80000d80:	3b4e8e93          	add	t4,t4,948 # 80040130 <d_3_17>
    80000d84:	ffe00a37          	lui	s4,0xffe00
    80000d88:	014eceb3          	xor	t4,t4,s4
    80000d8c:	014eb387          	fld	ft7,20(t4)

0000000080000d90 <_l78>:
    80000d90:	01479493          	sll	s1,a5,0x14

0000000080000d94 <_l79>:
    80000d94:	e00006d3          	fmv.x.w	a3,ft0

0000000080000d98 <_l80>:
    80000d98:	087096d3          	fsub.s	fa3,ft1,ft7,rtz

0000000080000d9c <_l81>:
    80000d9c:	07674c63          	blt	a4,s6,80000e14 <_l95>

0000000080000da0 <_l82>:
    80000da0:	06dcfa63          	bgeu	s9,a3,80000e14 <_l95>

0000000080000da4 <_l83>:
    80000da4:	61ad9acb          	fnmsub.s	fs5,fs11,fs10,fa2,rtz

0000000080000da8 <_l84>:
    80000da8:	41350b3b          	subw	s6,a0,s3

0000000080000dac <_l85>:
    80000dac:	03483153          	fadd.d	ft2,fa6,fs4,rup

0000000080000db0 <_l86>:
    80000db0:	0001fd17          	auipc	s10,0x1f
    80000db4:	370d0d13          	add	s10,s10,880 # 80020120 <d_1_16>
    80000db8:	0d61                	add	s10,s10,24
    80000dba:	e1ed3aaf          	amomaxu.d	s5,t5,(s10)

0000000080000dbe <_l87>:
    80000dbe:	407153b3          	sra	t2,sp,t2

0000000080000dc2 <_l88>:
    80000dc2:	75ecb297          	auipc	t0,0x75ecb

0000000080000dc6 <_l89>:
    80000dc6:	0000fe17          	auipc	t3,0xf
    80000dca:	2cae0e13          	add	t3,t3,714 # 80010090 <d_0_7>
    80000dce:	1e31                	add	t3,t3,-20
    80000dd0:	ffe00137          	lui	sp,0xffe00
    80000dd4:	002e4e33          	xor	t3,t3,sp
    80000dd8:	802e27af          	amomin.w	a5,sp,(t3)

0000000080000ddc <_l90>:
    80000ddc:	0002fc97          	auipc	s9,0x2f
    80000de0:	364c8c93          	add	s9,s9,868 # 80030140 <d_2_18>
    80000de4:	8ce6                	mv	s9,s9
    80000de6:	40ccb6af          	amoor.d	a3,a2,(s9)

0000000080000dea <_l91>:
    80000dea:	0005f817          	auipc	a6,0x5f
    80000dee:	3e680813          	add	a6,a6,998 # 800601d0 <d_5_27>
    80000df2:	01e82e27          	fsw	ft10,28(a6)

0000000080000df6 <_l92>:
    80000df6:	0003f317          	auipc	t1,0x3f
    80000dfa:	35a30313          	add	t1,t1,858 # 80040150 <d_3_19>
    80000dfe:	0371                	add	t1,t1,28
    80000e00:	ffe00db7          	lui	s11,0xffe00
    80000e04:	01b34333          	xor	t1,t1,s11
    80000e08:	61b3252f          	amoand.w	a0,s11,(t1)

0000000080000e0c <_l93>:
    80000e0c:	c0279ed3          	fcvt.l.s	t4,fa5,rtz

0000000080000e10 <_l94>:
    80000e10:	03e8e33b          	remw	t1,a7,t5

0000000080000e14 <_l95>:
    80000e14:	925b10cb          	fnmsub.d	ft1,fs6,ft5,fs2,rtz

0000000080000e18 <_l96>:
    80000e18:	14205573          	csrrw	a0,scause,0

0000000080000e1c <_l97>:
    80000e1c:	801aa293          	slti	t0,s5,-2047

0000000080000e20 <_l98>:
    80000e20:	22099753          	fsgnjn.d	fa4,fs3,ft0

0000000080000e24 <_l99>:
    80000e24:	0004f313          	and	t1,s1,0

0000000080000e28 <_l100>:
    80000e28:	238384d3          	fsgnj.d	fs1,ft7,fs8

0000000080000e2c <_l101>:
    80000e2c:	00000073          	ecall
	...

0000000080000e32 <_end_main>:
	...

Disassembly of section .tohost:

0000000080001000 <tohost>:
	...

0000000080001040 <fromhost>:
	...
